ARM GAS  /tmp/ccLmupKq.s 			page 1


   1              		.syntax unified
   2              		.cpu cortex-m4
   3              		.eabi_attribute 27, 1
   4              		.fpu fpv4-sp-d16
   5              		.eabi_attribute 20, 1
   6              		.eabi_attribute 21, 1
   7              		.eabi_attribute 23, 3
   8              		.eabi_attribute 24, 1
   9              		.eabi_attribute 25, 1
  10              		.eabi_attribute 26, 1
  11              		.eabi_attribute 30, 2
  12              		.eabi_attribute 34, 1
  13              		.eabi_attribute 18, 4
  14              		.thumb
  15              		.syntax unified
  16              		.file	"functions.c"
  17              		.section	.text.Drive_Forward,"ax",%progbits
  18              		.align	2
  19              		.global	Drive_Forward
  20              		.thumb
  21              		.thumb_func
  23              	Drive_Forward:
  24              		@ args = 0, pretend = 0, frame = 0
  25              		@ frame_needed = 0, uses_anonymous_args = 0
  26 0000 38B5     		push	{r3, r4, r5, lr}
  27 0002 0B4D     		ldr	r5, .L3
  28 0004 0446     		mov	r4, r0
  29 0006 0022     		movs	r2, #0
  30 0008 2846     		mov	r0, r5
  31 000a 4FF48071 		mov	r1, #256
  32 000e FFF7FEFF 		bl	HAL_GPIO_WritePin
  33 0012 2846     		mov	r0, r5
  34 0014 0022     		movs	r2, #0
  35 0016 4FF40071 		mov	r1, #512
  36 001a FFF7FEFF 		bl	HAL_GPIO_WritePin
  37 001e 054B     		ldr	r3, .L3+4
  38 0020 1B68     		ldr	r3, [r3]
  39 0022 1B68     		ldr	r3, [r3]
  40 0024 5C63     		str	r4, [r3, #52]
  41 0026 9C63     		str	r4, [r3, #56]
  42 0028 DC63     		str	r4, [r3, #60]
  43 002a 1C64     		str	r4, [r3, #64]
  44 002c 38BD     		pop	{r3, r4, r5, pc}
  45              	.L4:
  46 002e 00BF     		.align	2
  47              	.L3:
  48 0030 00080240 		.word	1073874944
  49 0034 00000000 		.word	motorTimer
  51              		.section	.text.Drive_Left,"ax",%progbits
  52              		.align	2
  53              		.global	Drive_Left
  54              		.thumb
  55              		.thumb_func
  57              	Drive_Left:
  58              		@ args = 0, pretend = 0, frame = 0
  59              		@ frame_needed = 0, uses_anonymous_args = 0
  60 0000 38B5     		push	{r3, r4, r5, lr}
ARM GAS  /tmp/ccLmupKq.s 			page 2


  61 0002 0B4D     		ldr	r5, .L7
  62 0004 0446     		mov	r4, r0
  63 0006 0122     		movs	r2, #1
  64 0008 2846     		mov	r0, r5
  65 000a 4FF48071 		mov	r1, #256
  66 000e FFF7FEFF 		bl	HAL_GPIO_WritePin
  67 0012 2846     		mov	r0, r5
  68 0014 0022     		movs	r2, #0
  69 0016 4FF40071 		mov	r1, #512
  70 001a FFF7FEFF 		bl	HAL_GPIO_WritePin
  71 001e 054B     		ldr	r3, .L7+4
  72 0020 1B68     		ldr	r3, [r3]
  73 0022 1B68     		ldr	r3, [r3]
  74 0024 5C63     		str	r4, [r3, #52]
  75 0026 9C63     		str	r4, [r3, #56]
  76 0028 DC63     		str	r4, [r3, #60]
  77 002a 1C64     		str	r4, [r3, #64]
  78 002c 38BD     		pop	{r3, r4, r5, pc}
  79              	.L8:
  80 002e 00BF     		.align	2
  81              	.L7:
  82 0030 00080240 		.word	1073874944
  83 0034 00000000 		.word	motorTimer
  85              		.section	.text.Drive_Right,"ax",%progbits
  86              		.align	2
  87              		.global	Drive_Right
  88              		.thumb
  89              		.thumb_func
  91              	Drive_Right:
  92              		@ args = 0, pretend = 0, frame = 0
  93              		@ frame_needed = 0, uses_anonymous_args = 0
  94 0000 38B5     		push	{r3, r4, r5, lr}
  95 0002 0B4D     		ldr	r5, .L11
  96 0004 0446     		mov	r4, r0
  97 0006 0022     		movs	r2, #0
  98 0008 2846     		mov	r0, r5
  99 000a 4FF48071 		mov	r1, #256
 100 000e FFF7FEFF 		bl	HAL_GPIO_WritePin
 101 0012 2846     		mov	r0, r5
 102 0014 0122     		movs	r2, #1
 103 0016 4FF40071 		mov	r1, #512
 104 001a FFF7FEFF 		bl	HAL_GPIO_WritePin
 105 001e 054B     		ldr	r3, .L11+4
 106 0020 1B68     		ldr	r3, [r3]
 107 0022 1B68     		ldr	r3, [r3]
 108 0024 5C63     		str	r4, [r3, #52]
 109 0026 9C63     		str	r4, [r3, #56]
 110 0028 DC63     		str	r4, [r3, #60]
 111 002a 1C64     		str	r4, [r3, #64]
 112 002c 38BD     		pop	{r3, r4, r5, pc}
 113              	.L12:
 114 002e 00BF     		.align	2
 115              	.L11:
 116 0030 00080240 		.word	1073874944
 117 0034 00000000 		.word	motorTimer
 119              		.section	.text.Drive_Back,"ax",%progbits
 120              		.align	2
ARM GAS  /tmp/ccLmupKq.s 			page 3


 121              		.global	Drive_Back
 122              		.thumb
 123              		.thumb_func
 125              	Drive_Back:
 126              		@ args = 0, pretend = 0, frame = 0
 127              		@ frame_needed = 0, uses_anonymous_args = 0
 128 0000 38B5     		push	{r3, r4, r5, lr}
 129 0002 0B4D     		ldr	r5, .L15
 130 0004 0446     		mov	r4, r0
 131 0006 0122     		movs	r2, #1
 132 0008 2846     		mov	r0, r5
 133 000a 4FF48071 		mov	r1, #256
 134 000e FFF7FEFF 		bl	HAL_GPIO_WritePin
 135 0012 2846     		mov	r0, r5
 136 0014 0122     		movs	r2, #1
 137 0016 4FF40071 		mov	r1, #512
 138 001a FFF7FEFF 		bl	HAL_GPIO_WritePin
 139 001e 054B     		ldr	r3, .L15+4
 140 0020 1B68     		ldr	r3, [r3]
 141 0022 1B68     		ldr	r3, [r3]
 142 0024 5C63     		str	r4, [r3, #52]
 143 0026 9C63     		str	r4, [r3, #56]
 144 0028 DC63     		str	r4, [r3, #60]
 145 002a 1C64     		str	r4, [r3, #64]
 146 002c 38BD     		pop	{r3, r4, r5, pc}
 147              	.L16:
 148 002e 00BF     		.align	2
 149              	.L15:
 150 0030 00080240 		.word	1073874944
 151 0034 00000000 		.word	motorTimer
 153              		.section	.text.initialize_ADC,"ax",%progbits
 154              		.align	2
 155              		.global	initialize_ADC
 156              		.thumb
 157              		.thumb_func
 159              	initialize_ADC:
 160              		@ args = 72, pretend = 16, frame = 0
 161              		@ frame_needed = 0, uses_anonymous_args = 0
 162 0000 84B0     		sub	sp, sp, #16
 163 0002 08B5     		push	{r3, lr}
 164 0004 0DF1080E 		add	lr, sp, #8
 165 0008 8EE80F00 		stmia	lr, {r0, r1, r2, r3}
 166 000c 7046     		mov	r0, lr
 167 000e FFF7FEFF 		bl	HAL_ADC_Start
 168 0012 02A8     		add	r0, sp, #8
 169 0014 6421     		movs	r1, #100
 170 0016 FFF7FEFF 		bl	HAL_ADC_PollForConversion
 171 001a BDE80840 		pop	{r3, lr}
 172 001e 04B0     		add	sp, sp, #16
 173 0020 7047     		bx	lr
 175 0022 00BF     		.section	.text.lineDetected,"ax",%progbits
 176              		.align	2
 177              		.global	lineDetected
 178              		.thumb
 179              		.thumb_func
 181              	lineDetected:
 182              		@ args = 76, pretend = 16, frame = 72
ARM GAS  /tmp/ccLmupKq.s 			page 4


 183              		@ frame_needed = 0, uses_anonymous_args = 0
 184 0000 84B0     		sub	sp, sp, #16
 185 0002 10B5     		push	{r4, lr}
 186 0004 92B0     		sub	sp, sp, #72
 187 0006 14AC     		add	r4, sp, #80
 188 0008 84E80F00 		stmia	r4, {r0, r1, r2, r3}
 189 000c 4822     		movs	r2, #72
 190 000e 2146     		mov	r1, r4
 191 0010 6846     		mov	r0, sp
 192 0012 BDF89840 		ldrh	r4, [sp, #152]
 193 0016 FFF7FEFF 		bl	memcpy
 194 001a 6846     		mov	r0, sp
 195 001c FFF7FEFF 		bl	HAL_ADC_Start
 196 0020 6421     		movs	r1, #100
 197 0022 6846     		mov	r0, sp
 198 0024 FFF7FEFF 		bl	HAL_ADC_PollForConversion
 199 0028 14A8     		add	r0, sp, #80
 200 002a FFF7FEFF 		bl	HAL_ADC_GetValue
 201 002e A042     		cmp	r0, r4
 202 0030 2CBF     		ite	cs
 203 0032 0020     		movcs	r0, #0
 204 0034 0120     		movcc	r0, #1
 205 0036 12B0     		add	sp, sp, #72
 206              		@ sp needed
 207 0038 BDE81040 		pop	{r4, lr}
 208 003c 04B0     		add	sp, sp, #16
 209 003e 7047     		bx	lr
 211              		.section	.text.lineFollowerCallback,"ax",%progbits
 212              		.align	2
 213              		.global	lineFollowerCallback
 214              		.thumb
 215              		.thumb_func
 217              	lineFollowerCallback:
 218              		@ args = 148, pretend = 16, frame = 0
 219              		@ frame_needed = 0, uses_anonymous_args = 0
 220 0000 84B0     		sub	sp, sp, #16
 221 0002 70B5     		push	{r4, r5, r6, lr}
 222 0004 90B0     		sub	sp, sp, #64
 223 0006 14AC     		add	r4, sp, #80
 224 0008 18AD     		add	r5, sp, #96
 225 000a 84E80F00 		stmia	r4, {r0, r1, r2, r3}
 226 000e 0FCD     		ldmia	r5!, {r0, r1, r2, r3}
 227 0010 40F6B836 		movw	r6, #3000
 228 0014 6C46     		mov	r4, sp
 229 0016 0E96     		str	r6, [sp, #56]
 230 0018 0FC4     		stmia	r4!, {r0, r1, r2, r3}
 231 001a 0FCD     		ldmia	r5!, {r0, r1, r2, r3}
 232 001c 0FC4     		stmia	r4!, {r0, r1, r2, r3}
 233 001e 0FCD     		ldmia	r5!, {r0, r1, r2, r3}
 234 0020 0FC4     		stmia	r4!, {r0, r1, r2, r3}
 235 0022 95E80300 		ldmia	r5, {r0, r1}
 236 0026 84E80300 		stmia	r4, {r0, r1}
 237 002a 14AB     		add	r3, sp, #80
 238 002c 0FCB     		ldmia	r3, {r0, r1, r2, r3}
 239 002e FFF7FEFF 		bl	lineDetected
 240 0032 90B1     		cbz	r0, .L22
 241 0034 2AAD     		add	r5, sp, #168
ARM GAS  /tmp/ccLmupKq.s 			page 5


 242 0036 0FCD     		ldmia	r5!, {r0, r1, r2, r3}
 243 0038 6C46     		mov	r4, sp
 244 003a 0E96     		str	r6, [sp, #56]
 245 003c 0FC4     		stmia	r4!, {r0, r1, r2, r3}
 246 003e 0FCD     		ldmia	r5!, {r0, r1, r2, r3}
 247 0040 0FC4     		stmia	r4!, {r0, r1, r2, r3}
 248 0042 0FCD     		ldmia	r5!, {r0, r1, r2, r3}
 249 0044 0FC4     		stmia	r4!, {r0, r1, r2, r3}
 250 0046 95E80300 		ldmia	r5, {r0, r1}
 251 004a 84E80300 		stmia	r4, {r0, r1}
 252 004e 26AB     		add	r3, sp, #152
 253 0050 0FCB     		ldmia	r3, {r0, r1, r2, r3}
 254 0052 FFF7FEFF 		bl	lineDetected
 255 0056 0028     		cmp	r0, #0
 256 0058 4AD1     		bne	.L34
 257              	.L22:
 258 005a 18AC     		add	r4, sp, #96
 259 005c 0FCC     		ldmia	r4!, {r0, r1, r2, r3}
 260 005e 40F6B836 		movw	r6, #3000
 261 0062 6D46     		mov	r5, sp
 262 0064 0E96     		str	r6, [sp, #56]
 263 0066 0FC5     		stmia	r5!, {r0, r1, r2, r3}
 264 0068 0FCC     		ldmia	r4!, {r0, r1, r2, r3}
 265 006a 0FC5     		stmia	r5!, {r0, r1, r2, r3}
 266 006c 0FCC     		ldmia	r4!, {r0, r1, r2, r3}
 267 006e 0FC5     		stmia	r5!, {r0, r1, r2, r3}
 268 0070 94E80300 		ldmia	r4, {r0, r1}
 269 0074 85E80300 		stmia	r5, {r0, r1}
 270 0078 14AB     		add	r3, sp, #80
 271 007a 0FCB     		ldmia	r3, {r0, r1, r2, r3}
 272 007c FFF7FEFF 		bl	lineDetected
 273 0080 50BB     		cbnz	r0, .L35
 274 0082 2AAD     		add	r5, sp, #168
 275 0084 0FCD     		ldmia	r5!, {r0, r1, r2, r3}
 276 0086 6C46     		mov	r4, sp
 277 0088 0E96     		str	r6, [sp, #56]
 278 008a 0FC4     		stmia	r4!, {r0, r1, r2, r3}
 279 008c 0FCD     		ldmia	r5!, {r0, r1, r2, r3}
 280 008e 0FC4     		stmia	r4!, {r0, r1, r2, r3}
 281 0090 0FCD     		ldmia	r5!, {r0, r1, r2, r3}
 282 0092 0FC4     		stmia	r4!, {r0, r1, r2, r3}
 283 0094 95E80300 		ldmia	r5, {r0, r1}
 284 0098 84E80300 		stmia	r4, {r0, r1}
 285 009c 26AB     		add	r3, sp, #152
 286 009e 0FCB     		ldmia	r3, {r0, r1, r2, r3}
 287 00a0 FFF7FEFF 		bl	lineDetected
 288 00a4 0446     		mov	r4, r0
 289 00a6 58B9     		cbnz	r0, .L36
 290 00a8 0246     		mov	r2, r0
 291 00aa 2021     		movs	r1, #32
 292 00ac 1648     		ldr	r0, .L37
 293 00ae FFF7FEFF 		bl	HAL_GPIO_WritePin
 294 00b2 2046     		mov	r0, r4
 295 00b4 10B0     		add	sp, sp, #64
 296              		@ sp needed
 297 00b6 BDE87040 		pop	{r4, r5, r6, lr}
 298 00ba 04B0     		add	sp, sp, #16
ARM GAS  /tmp/ccLmupKq.s 			page 6


 299 00bc FFF7FEBF 		b	Drive_Forward
 300              	.L36:
 301 00c0 0122     		movs	r2, #1
 302 00c2 2021     		movs	r1, #32
 303 00c4 1048     		ldr	r0, .L37
 304 00c6 FFF7FEFF 		bl	HAL_GPIO_WritePin
 305 00ca 1920     		movs	r0, #25
 306 00cc 10B0     		add	sp, sp, #64
 307              		@ sp needed
 308 00ce BDE87040 		pop	{r4, r5, r6, lr}
 309 00d2 04B0     		add	sp, sp, #16
 310 00d4 FFF7FEBF 		b	Drive_Right
 311              	.L35:
 312 00d8 0122     		movs	r2, #1
 313 00da 2021     		movs	r1, #32
 314 00dc 0A48     		ldr	r0, .L37
 315 00de FFF7FEFF 		bl	HAL_GPIO_WritePin
 316 00e2 1920     		movs	r0, #25
 317 00e4 10B0     		add	sp, sp, #64
 318              		@ sp needed
 319 00e6 BDE87040 		pop	{r4, r5, r6, lr}
 320 00ea 04B0     		add	sp, sp, #16
 321 00ec FFF7FEBF 		b	Drive_Left
 322              	.L34:
 323 00f0 0122     		movs	r2, #1
 324 00f2 2021     		movs	r1, #32
 325 00f4 0448     		ldr	r0, .L37
 326 00f6 FFF7FEFF 		bl	HAL_GPIO_WritePin
 327 00fa 1920     		movs	r0, #25
 328 00fc 10B0     		add	sp, sp, #64
 329              		@ sp needed
 330 00fe BDE87040 		pop	{r4, r5, r6, lr}
 331 0102 04B0     		add	sp, sp, #16
 332 0104 FFF7FEBF 		b	Drive_Forward
 333              	.L38:
 334              		.align	2
 335              	.L37:
 336 0108 00000240 		.word	1073872896
 338              		.ident	"GCC: (GNU Tools for ARM Embedded Processors) 5.4.1 20160919 (release) [ARM/embedded-5-bran
ARM GAS  /tmp/ccLmupKq.s 			page 7

