ARM GAS  /tmp/ccX56e3i.s 			page 1


   1              		.syntax unified
   2              		.cpu cortex-m4
   3              		.eabi_attribute 27, 1
   4              		.fpu fpv4-sp-d16
   5              		.eabi_attribute 20, 1
   6              		.eabi_attribute 21, 1
   7              		.eabi_attribute 23, 3
   8              		.eabi_attribute 24, 1
   9              		.eabi_attribute 25, 1
  10              		.eabi_attribute 26, 1
  11              		.eabi_attribute 30, 2
  12              		.eabi_attribute 34, 1
  13              		.eabi_attribute 18, 4
  14              		.thumb
  15              		.syntax unified
  16              		.file	"main.c"
  17              		.section	.text.SystemClock_Config,"ax",%progbits
  18              		.align	2
  19              		.global	SystemClock_Config
  20              		.thumb
  21              		.thumb_func
  23              	SystemClock_Config:
  24              		@ args = 0, pretend = 0, frame = 80
  25              		@ frame_needed = 0, uses_anonymous_args = 0
  26 0000 70B5     		push	{r4, r5, r6, lr}
  27 0002 94B0     		sub	sp, sp, #80
  28 0004 0022     		movs	r2, #0
  29 0006 2949     		ldr	r1, .L13
  30 0008 0092     		str	r2, [sp]
  31 000a 086C     		ldr	r0, [r1, #64]
  32 000c 284B     		ldr	r3, .L13+4
  33 000e 40F08050 		orr	r0, r0, #268435456
  34 0012 0864     		str	r0, [r1, #64]
  35 0014 096C     		ldr	r1, [r1, #64]
  36 0016 01F08051 		and	r1, r1, #268435456
  37 001a 0091     		str	r1, [sp]
  38 001c 0099     		ldr	r1, [sp]
  39 001e 0192     		str	r2, [sp, #4]
  40 0020 1968     		ldr	r1, [r3]
  41 0022 41F44041 		orr	r1, r1, #49152
  42 0026 1960     		str	r1, [r3]
  43 0028 1B68     		ldr	r3, [r3]
  44 002a 0E92     		str	r2, [sp, #56]
  45 002c 03F44043 		and	r3, r3, #49152
  46 0030 0224     		movs	r4, #2
  47 0032 0193     		str	r3, [sp, #4]
  48 0034 0125     		movs	r5, #1
  49 0036 1021     		movs	r1, #16
  50 0038 0822     		movs	r2, #8
  51 003a B423     		movs	r3, #180
  52 003c 07A8     		add	r0, sp, #28
  53 003e 019E     		ldr	r6, [sp, #4]
  54 0040 0794     		str	r4, [sp, #28]
  55 0042 0D94     		str	r4, [sp, #52]
  56 0044 1194     		str	r4, [sp, #68]
  57 0046 1294     		str	r4, [sp, #72]
  58 0048 1394     		str	r4, [sp, #76]
ARM GAS  /tmp/ccX56e3i.s 			page 2


  59 004a 0A95     		str	r5, [sp, #40]
  60 004c 0B91     		str	r1, [sp, #44]
  61 004e 0F92     		str	r2, [sp, #60]
  62 0050 1093     		str	r3, [sp, #64]
  63 0052 FFF7FEFF 		bl	HAL_RCC_OscConfig
  64 0056 00B1     		cbz	r0, .L2
  65              	.L8:
  66 0058 FEE7     		b	.L8
  67              	.L2:
  68 005a FFF7FEFF 		bl	HAL_PWREx_EnableOverDrive
  69 005e 0346     		mov	r3, r0
  70 0060 00B1     		cbz	r0, .L4
  71              	.L9:
  72 0062 FEE7     		b	.L9
  73              	.L4:
  74 0064 4FF48052 		mov	r2, #4096
  75 0068 0F26     		movs	r6, #15
  76 006a 4FF4A055 		mov	r5, #5120
  77 006e 0521     		movs	r1, #5
  78 0070 02A8     		add	r0, sp, #8
  79 0072 0394     		str	r4, [sp, #12]
  80 0074 0493     		str	r3, [sp, #16]
  81 0076 0296     		str	r6, [sp, #8]
  82 0078 0595     		str	r5, [sp, #20]
  83 007a 0692     		str	r2, [sp, #24]
  84 007c FFF7FEFF 		bl	HAL_RCC_ClockConfig
  85 0080 0446     		mov	r4, r0
  86 0082 00B1     		cbz	r0, .L6
  87              	.L10:
  88 0084 FEE7     		b	.L10
  89              	.L6:
  90 0086 FFF7FEFF 		bl	HAL_RCC_GetHCLKFreq
  91 008a 0A4B     		ldr	r3, .L13+8
  92 008c A3FB0030 		umull	r3, r0, r3, r0
  93 0090 8009     		lsrs	r0, r0, #6
  94 0092 FFF7FEFF 		bl	HAL_SYSTICK_Config
  95 0096 0420     		movs	r0, #4
  96 0098 FFF7FEFF 		bl	HAL_SYSTICK_CLKSourceConfig
  97 009c 2246     		mov	r2, r4
  98 009e 2146     		mov	r1, r4
  99 00a0 4FF0FF30 		mov	r0, #-1
 100 00a4 FFF7FEFF 		bl	HAL_NVIC_SetPriority
 101 00a8 14B0     		add	sp, sp, #80
 102              		@ sp needed
 103 00aa 70BD     		pop	{r4, r5, r6, pc}
 104              	.L14:
 105              		.align	2
 106              	.L13:
 107 00ac 00380240 		.word	1073887232
 108 00b0 00700040 		.word	1073770496
 109 00b4 D34D6210 		.word	274877907
 111              		.section	.text.startup.main,"ax",%progbits
 112              		.align	2
 113              		.global	main
 114              		.thumb
 115              		.thumb_func
 117              	main:
ARM GAS  /tmp/ccX56e3i.s 			page 3


 118              		@ Volatile: function does not return.
 119              		@ args = 0, pretend = 0, frame = 56
 120              		@ frame_needed = 0, uses_anonymous_args = 0
 121 0000 80B5     		push	{r7, lr}
 122 0002 8EB0     		sub	sp, sp, #56
 123 0004 0025     		movs	r5, #0
 124 0006 FFF7FEFF 		bl	HAL_Init
 125 000a FFF7FEFF 		bl	SystemClock_Config
 126 000e 704B     		ldr	r3, .L39
 127 0010 0195     		str	r5, [sp, #4]
 128 0012 1A6B     		ldr	r2, [r3, #48]
 129 0014 6F48     		ldr	r0, .L39+4
 130 0016 704C     		ldr	r4, .L39+8
 131 0018 42F00402 		orr	r2, r2, #4
 132 001c 1A63     		str	r2, [r3, #48]
 133 001e 1A6B     		ldr	r2, [r3, #48]
 134 0020 02F00402 		and	r2, r2, #4
 135 0024 0192     		str	r2, [sp, #4]
 136 0026 019A     		ldr	r2, [sp, #4]
 137 0028 0295     		str	r5, [sp, #8]
 138 002a 1A6B     		ldr	r2, [r3, #48]
 139 002c 42F08002 		orr	r2, r2, #128
 140 0030 1A63     		str	r2, [r3, #48]
 141 0032 1A6B     		ldr	r2, [r3, #48]
 142 0034 02F08002 		and	r2, r2, #128
 143 0038 0292     		str	r2, [sp, #8]
 144 003a 029A     		ldr	r2, [sp, #8]
 145 003c 0395     		str	r5, [sp, #12]
 146 003e 1A6B     		ldr	r2, [r3, #48]
 147 0040 42F00102 		orr	r2, r2, #1
 148 0044 1A63     		str	r2, [r3, #48]
 149 0046 1A6B     		ldr	r2, [r3, #48]
 150 0048 02F00102 		and	r2, r2, #1
 151 004c 0392     		str	r2, [sp, #12]
 152 004e 039A     		ldr	r2, [sp, #12]
 153 0050 0495     		str	r5, [sp, #16]
 154 0052 1A6B     		ldr	r2, [r3, #48]
 155 0054 42F00202 		orr	r2, r2, #2
 156 0058 1A63     		str	r2, [r3, #48]
 157 005a 1B6B     		ldr	r3, [r3, #48]
 158 005c 03F00203 		and	r3, r3, #2
 159 0060 0493     		str	r3, [sp, #16]
 160 0062 2A46     		mov	r2, r5
 161 0064 2021     		movs	r1, #32
 162 0066 049B     		ldr	r3, [sp, #16]
 163 0068 FFF7FEFF 		bl	HAL_GPIO_WritePin
 164 006c 2A46     		mov	r2, r5
 165 006e 4FF44071 		mov	r1, #768
 166 0072 5A48     		ldr	r0, .L39+12
 167 0074 FFF7FEFF 		bl	HAL_GPIO_WritePin
 168 0078 4FF40052 		mov	r2, #8192
 169 007c 584B     		ldr	r3, .L39+16
 170 007e 5748     		ldr	r0, .L39+12
 171 0080 0792     		str	r2, [sp, #28]
 172 0082 07A9     		add	r1, sp, #28
 173 0084 0893     		str	r3, [sp, #32]
 174 0086 0127     		movs	r7, #1
ARM GAS  /tmp/ccX56e3i.s 			page 4


 175 0088 0995     		str	r5, [sp, #36]
 176 008a FFF7FEFF 		bl	HAL_GPIO_Init
 177 008e 2023     		movs	r3, #32
 178 0090 07A9     		add	r1, sp, #28
 179 0092 5048     		ldr	r0, .L39+4
 180 0094 0793     		str	r3, [sp, #28]
 181 0096 0995     		str	r5, [sp, #36]
 182 0098 0A95     		str	r5, [sp, #40]
 183 009a 0897     		str	r7, [sp, #32]
 184 009c FFF7FEFF 		bl	HAL_GPIO_Init
 185 00a0 4FF44073 		mov	r3, #768
 186 00a4 07A9     		add	r1, sp, #28
 187 00a6 4D48     		ldr	r0, .L39+12
 188 00a8 0793     		str	r3, [sp, #28]
 189 00aa 0897     		str	r7, [sp, #32]
 190 00ac 0995     		str	r5, [sp, #36]
 191 00ae 0A95     		str	r5, [sp, #40]
 192 00b0 FFF7FEFF 		bl	HAL_GPIO_Init
 193 00b4 2A46     		mov	r2, r5
 194 00b6 2946     		mov	r1, r5
 195 00b8 2820     		movs	r0, #40
 196 00ba FFF7FEFF 		bl	HAL_NVIC_SetPriority
 197 00be 2820     		movs	r0, #40
 198 00c0 FFF7FEFF 		bl	HAL_NVIC_EnableIRQ
 199 00c4 4749     		ldr	r1, .L39+20
 200 00c6 A560     		str	r5, [r4, #8]
 201 00c8 B422     		movs	r2, #180
 202 00ca 6423     		movs	r3, #100
 203 00cc 2046     		mov	r0, r4
 204 00ce 2561     		str	r5, [r4, #16]
 205 00d0 84E80600 		stmia	r4, {r1, r2}
 206 00d4 E360     		str	r3, [r4, #12]
 207 00d6 FFF7FEFF 		bl	HAL_TIM_PWM_Init
 208 00da 00B1     		cbz	r0, .L16
 209              	.L31:
 210 00dc FEE7     		b	.L31
 211              	.L16:
 212 00de 0346     		mov	r3, r0
 213 00e0 05A9     		add	r1, sp, #20
 214 00e2 2046     		mov	r0, r4
 215 00e4 0593     		str	r3, [sp, #20]
 216 00e6 0693     		str	r3, [sp, #24]
 217 00e8 FFF7FEFF 		bl	HAL_TIMEx_MasterConfigSynchronization
 218 00ec 00B1     		cbz	r0, .L18
 219              	.L32:
 220 00ee FEE7     		b	.L32
 221              	.L18:
 222 00f0 0246     		mov	r2, r0
 223 00f2 6025     		movs	r5, #96
 224 00f4 3223     		movs	r3, #50
 225 00f6 0990     		str	r0, [sp, #36]
 226 00f8 0B90     		str	r0, [sp, #44]
 227 00fa 07A9     		add	r1, sp, #28
 228 00fc 2046     		mov	r0, r4
 229 00fe 0795     		str	r5, [sp, #28]
 230 0100 0893     		str	r3, [sp, #32]
 231 0102 FFF7FEFF 		bl	HAL_TIM_PWM_ConfigChannel
ARM GAS  /tmp/ccX56e3i.s 			page 5


 232 0106 00B1     		cbz	r0, .L20
 233              	.L33:
 234 0108 FEE7     		b	.L33
 235              	.L20:
 236 010a 0422     		movs	r2, #4
 237 010c 07A9     		add	r1, sp, #28
 238 010e 2046     		mov	r0, r4
 239 0110 FFF7FEFF 		bl	HAL_TIM_PWM_ConfigChannel
 240 0114 00B1     		cbz	r0, .L22
 241              	.L34:
 242 0116 FEE7     		b	.L34
 243              	.L22:
 244 0118 0822     		movs	r2, #8
 245 011a 07A9     		add	r1, sp, #28
 246 011c 2046     		mov	r0, r4
 247 011e FFF7FEFF 		bl	HAL_TIM_PWM_ConfigChannel
 248 0122 00B1     		cbz	r0, .L24
 249              	.L35:
 250 0124 FEE7     		b	.L35
 251              	.L24:
 252 0126 07A9     		add	r1, sp, #28
 253 0128 0C22     		movs	r2, #12
 254 012a 2046     		mov	r0, r4
 255 012c FFF7FEFF 		bl	HAL_TIM_PWM_ConfigChannel
 256 0130 0546     		mov	r5, r0
 257 0132 00B1     		cbz	r0, .L26
 258              	.L36:
 259 0134 FEE7     		b	.L36
 260              	.L26:
 261 0136 2046     		mov	r0, r4
 262 0138 FFF7FEFF 		bl	HAL_TIM_MspPostInit
 263 013c 2946     		mov	r1, r5
 264 013e 2046     		mov	r0, r4
 265 0140 FFF7FEFF 		bl	HAL_TIM_PWM_Start
 266 0144 0421     		movs	r1, #4
 267 0146 2046     		mov	r0, r4
 268 0148 FFF7FEFF 		bl	HAL_TIM_PWM_Start
 269 014c 0821     		movs	r1, #8
 270 014e 2046     		mov	r0, r4
 271 0150 FFF7FEFF 		bl	HAL_TIM_PWM_Start
 272 0154 0C21     		movs	r1, #12
 273 0156 2046     		mov	r0, r4
 274 0158 FFF7FEFF 		bl	HAL_TIM_PWM_Start
 275 015c 3A46     		mov	r2, r7
 276 015e 4FF48071 		mov	r1, #256
 277 0162 1E48     		ldr	r0, .L39+12
 278 0164 204E     		ldr	r6, .L39+24
 279 0166 214D     		ldr	r5, .L39+28
 280 0168 FFF7FEFF 		bl	HAL_GPIO_WritePin
 281 016c 3A46     		mov	r2, r7
 282 016e 4FF40071 		mov	r1, #512
 283 0172 1A48     		ldr	r0, .L39+12
 284 0174 FFF7FEFF 		bl	HAL_GPIO_WritePin
 285              	.L30:
 286 0178 2021     		movs	r1, #32
 287 017a 1648     		ldr	r0, .L39+4
 288 017c FFF7FEFF 		bl	HAL_GPIO_TogglePin
ARM GAS  /tmp/ccX56e3i.s 			page 6


 289 0180 2368     		ldr	r3, [r4]
 290 0182 5B6B     		ldr	r3, [r3, #52]
 291 0184 9BB2     		uxth	r3, r3
 292 0186 03F10A00 		add	r0, r3, #10
 293 018a 632B     		cmp	r3, #99
 294 018c 80B2     		uxth	r0, r0
 295 018e 88BF     		it	hi
 296 0190 0A20     		movhi	r0, #10
 297 0192 3380     		strh	r3, [r6]	@ movhi
 298 0194 2880     		strh	r0, [r5]	@ movhi
 299 0196 FFF7FEFF 		bl	Drive_Forward
 300 019a 40F6B830 		movw	r0, #3000
 301 019e FFF7FEFF 		bl	HAL_Delay
 302 01a2 2888     		ldrh	r0, [r5]
 303 01a4 FFF7FEFF 		bl	Drive_Left
 304 01a8 40F6B830 		movw	r0, #3000
 305 01ac FFF7FEFF 		bl	HAL_Delay
 306 01b0 2888     		ldrh	r0, [r5]
 307 01b2 FFF7FEFF 		bl	Drive_Right
 308 01b6 40F6B830 		movw	r0, #3000
 309 01ba FFF7FEFF 		bl	HAL_Delay
 310 01be 2888     		ldrh	r0, [r5]
 311 01c0 FFF7FEFF 		bl	Drive_Back
 312 01c4 40F6B830 		movw	r0, #3000
 313 01c8 FFF7FEFF 		bl	HAL_Delay
 314 01cc D4E7     		b	.L30
 315              	.L40:
 316 01ce 00BF     		.align	2
 317              	.L39:
 318 01d0 00380240 		.word	1073887232
 319 01d4 00000240 		.word	1073872896
 320 01d8 00000000 		.word	htim4
 321 01dc 00080240 		.word	1073874944
 322 01e0 00002110 		.word	270598144
 323 01e4 00080040 		.word	1073743872
 324 01e8 00000000 		.word	oldDutyCycle
 325 01ec 00000000 		.word	newDutyCycle
 327              		.section	.text.Error_Handler,"ax",%progbits
 328              		.align	2
 329              		.global	Error_Handler
 330              		.thumb
 331              		.thumb_func
 333              	Error_Handler:
 334              		@ Volatile: function does not return.
 335              		@ args = 0, pretend = 0, frame = 0
 336              		@ frame_needed = 0, uses_anonymous_args = 0
 337              		@ link register save eliminated.
 338              	.L42:
 339 0000 FEE7     		b	.L42
 341              		.global	motorTimer
 342              		.comm	newDutyCycle,2,2
 343              		.comm	oldDutyCycle,2,2
 344              		.comm	htim4,60,4
 345 0002 00BF     		.section	.data.motorTimer,"aw",%progbits
 346              		.align	2
 349              	motorTimer:
 350 0000 00000000 		.word	htim4
ARM GAS  /tmp/ccX56e3i.s 			page 7


 351              		.ident	"GCC: (GNU Tools for ARM Embedded Processors) 5.4.1 20160919 (release) [ARM/embedded-5-bran
ARM GAS  /tmp/ccX56e3i.s 			page 8


DEFINED SYMBOLS
                            *ABS*:00000000 main.c
     /tmp/ccX56e3i.s:18     .text.SystemClock_Config:00000000 $t
     /tmp/ccX56e3i.s:23     .text.SystemClock_Config:00000000 SystemClock_Config
     /tmp/ccX56e3i.s:107    .text.SystemClock_Config:000000ac $d
     /tmp/ccX56e3i.s:112    .text.startup.main:00000000 $t
     /tmp/ccX56e3i.s:117    .text.startup.main:00000000 main
     /tmp/ccX56e3i.s:318    .text.startup.main:000001d0 $d
                            *COM*:0000003c htim4
                            *COM*:00000002 oldDutyCycle
                            *COM*:00000002 newDutyCycle
     /tmp/ccX56e3i.s:328    .text.Error_Handler:00000000 $t
     /tmp/ccX56e3i.s:333    .text.Error_Handler:00000000 Error_Handler
     /tmp/ccX56e3i.s:349    .data.motorTimer:00000000 motorTimer
     /tmp/ccX56e3i.s:346    .data.motorTimer:00000000 $d

UNDEFINED SYMBOLS
HAL_RCC_OscConfig
HAL_PWREx_EnableOverDrive
HAL_RCC_ClockConfig
HAL_RCC_GetHCLKFreq
HAL_SYSTICK_Config
HAL_SYSTICK_CLKSourceConfig
HAL_NVIC_SetPriority
HAL_Init
HAL_GPIO_WritePin
HAL_GPIO_Init
HAL_NVIC_EnableIRQ
HAL_TIM_PWM_Init
HAL_TIMEx_MasterConfigSynchronization
HAL_TIM_PWM_ConfigChannel
HAL_TIM_MspPostInit
HAL_TIM_PWM_Start
HAL_GPIO_TogglePin
Drive_Forward
HAL_Delay
Drive_Left
Drive_Right
Drive_Back
