ARM GAS  /tmp/ccIFAqGp.s 			page 1


   1              		.syntax unified
   2              		.cpu cortex-m4
   3              		.eabi_attribute 27, 1
   4              		.fpu fpv4-sp-d16
   5              		.eabi_attribute 20, 1
   6              		.eabi_attribute 21, 1
   7              		.eabi_attribute 23, 3
   8              		.eabi_attribute 24, 1
   9              		.eabi_attribute 25, 1
  10              		.eabi_attribute 26, 1
  11              		.eabi_attribute 30, 2
  12              		.eabi_attribute 34, 1
  13              		.eabi_attribute 18, 4
  14              		.thumb
  15              		.syntax unified
  16              		.file	"main.c"
  17              		.section	.text.__io_putchar,"ax",%progbits
  18              		.align	2
  19              		.global	__io_putchar
  20              		.thumb
  21              		.thumb_func
  23              	__io_putchar:
  24              		@ args = 0, pretend = 0, frame = 8
  25              		@ frame_needed = 0, uses_anonymous_args = 0
  26 0000 00B5     		push	{lr}
  27 0002 83B0     		sub	sp, sp, #12
  28 0004 02A9     		add	r1, sp, #8
  29 0006 4FF6FF73 		movw	r3, #65535
  30 000a 41F8040D 		str	r0, [r1, #-4]!
  31 000e 0122     		movs	r2, #1
  32 0010 0348     		ldr	r0, .L3
  33 0012 FFF7FEFF 		bl	HAL_UART_Transmit
  34 0016 0198     		ldr	r0, [sp, #4]
  35 0018 03B0     		add	sp, sp, #12
  36              		@ sp needed
  37 001a 5DF804FB 		ldr	pc, [sp], #4
  38              	.L4:
  39 001e 00BF     		.align	2
  40              	.L3:
  41 0020 00000000 		.word	huart2
  43              		.section	.text.SystemClock_Config,"ax",%progbits
  44              		.align	2
  45              		.global	SystemClock_Config
  46              		.thumb
  47              		.thumb_func
  49              	SystemClock_Config:
  50              		@ args = 0, pretend = 0, frame = 80
  51              		@ frame_needed = 0, uses_anonymous_args = 0
  52 0000 70B5     		push	{r4, r5, r6, lr}
  53 0002 94B0     		sub	sp, sp, #80
  54 0004 0022     		movs	r2, #0
  55 0006 2949     		ldr	r1, .L17
  56 0008 0092     		str	r2, [sp]
  57 000a 086C     		ldr	r0, [r1, #64]
  58 000c 284B     		ldr	r3, .L17+4
  59 000e 40F08050 		orr	r0, r0, #268435456
  60 0012 0864     		str	r0, [r1, #64]
ARM GAS  /tmp/ccIFAqGp.s 			page 2


  61 0014 096C     		ldr	r1, [r1, #64]
  62 0016 01F08051 		and	r1, r1, #268435456
  63 001a 0091     		str	r1, [sp]
  64 001c 0099     		ldr	r1, [sp]
  65 001e 0192     		str	r2, [sp, #4]
  66 0020 1968     		ldr	r1, [r3]
  67 0022 41F44041 		orr	r1, r1, #49152
  68 0026 1960     		str	r1, [r3]
  69 0028 1B68     		ldr	r3, [r3]
  70 002a 0E92     		str	r2, [sp, #56]
  71 002c 03F44043 		and	r3, r3, #49152
  72 0030 0224     		movs	r4, #2
  73 0032 0193     		str	r3, [sp, #4]
  74 0034 0125     		movs	r5, #1
  75 0036 1021     		movs	r1, #16
  76 0038 0822     		movs	r2, #8
  77 003a B423     		movs	r3, #180
  78 003c 07A8     		add	r0, sp, #28
  79 003e 019E     		ldr	r6, [sp, #4]
  80 0040 0794     		str	r4, [sp, #28]
  81 0042 0D94     		str	r4, [sp, #52]
  82 0044 1194     		str	r4, [sp, #68]
  83 0046 1294     		str	r4, [sp, #72]
  84 0048 1394     		str	r4, [sp, #76]
  85 004a 0A95     		str	r5, [sp, #40]
  86 004c 0B91     		str	r1, [sp, #44]
  87 004e 0F92     		str	r2, [sp, #60]
  88 0050 1093     		str	r3, [sp, #64]
  89 0052 FFF7FEFF 		bl	HAL_RCC_OscConfig
  90 0056 00B1     		cbz	r0, .L6
  91              	.L12:
  92 0058 FEE7     		b	.L12
  93              	.L6:
  94 005a FFF7FEFF 		bl	HAL_PWREx_EnableOverDrive
  95 005e 0346     		mov	r3, r0
  96 0060 00B1     		cbz	r0, .L8
  97              	.L13:
  98 0062 FEE7     		b	.L13
  99              	.L8:
 100 0064 4FF48052 		mov	r2, #4096
 101 0068 0F26     		movs	r6, #15
 102 006a 4FF4A055 		mov	r5, #5120
 103 006e 0521     		movs	r1, #5
 104 0070 02A8     		add	r0, sp, #8
 105 0072 0394     		str	r4, [sp, #12]
 106 0074 0493     		str	r3, [sp, #16]
 107 0076 0296     		str	r6, [sp, #8]
 108 0078 0595     		str	r5, [sp, #20]
 109 007a 0692     		str	r2, [sp, #24]
 110 007c FFF7FEFF 		bl	HAL_RCC_ClockConfig
 111 0080 0446     		mov	r4, r0
 112 0082 00B1     		cbz	r0, .L10
 113              	.L14:
 114 0084 FEE7     		b	.L14
 115              	.L10:
 116 0086 FFF7FEFF 		bl	HAL_RCC_GetHCLKFreq
 117 008a 0A4B     		ldr	r3, .L17+8
ARM GAS  /tmp/ccIFAqGp.s 			page 3


 118 008c A3FB0030 		umull	r3, r0, r3, r0
 119 0090 8009     		lsrs	r0, r0, #6
 120 0092 FFF7FEFF 		bl	HAL_SYSTICK_Config
 121 0096 0420     		movs	r0, #4
 122 0098 FFF7FEFF 		bl	HAL_SYSTICK_CLKSourceConfig
 123 009c 2246     		mov	r2, r4
 124 009e 2146     		mov	r1, r4
 125 00a0 4FF0FF30 		mov	r0, #-1
 126 00a4 FFF7FEFF 		bl	HAL_NVIC_SetPriority
 127 00a8 14B0     		add	sp, sp, #80
 128              		@ sp needed
 129 00aa 70BD     		pop	{r4, r5, r6, pc}
 130              	.L18:
 131              		.align	2
 132              	.L17:
 133 00ac 00380240 		.word	1073887232
 134 00b0 00700040 		.word	1073770496
 135 00b4 D34D6210 		.word	274877907
 137              		.global	__aeabi_f2d
 138              		.section	.text.startup.main,"ax",%progbits
 139              		.align	2
 140              		.global	main
 141              		.thumb
 142              		.thumb_func
 144              	main:
 145              		@ Volatile: function does not return.
 146              		@ args = 0, pretend = 0, frame = 56
 147              		@ frame_needed = 0, uses_anonymous_args = 0
 148 0000 80B5     		push	{r7, lr}
 149 0002 8EB0     		sub	sp, sp, #56
 150 0004 0025     		movs	r5, #0
 151 0006 FFF7FEFF 		bl	HAL_Init
 152 000a FFF7FEFF 		bl	SystemClock_Config
 153 000e 844B     		ldr	r3, .L49
 154 0010 0195     		str	r5, [sp, #4]
 155 0012 1A6B     		ldr	r2, [r3, #48]
 156 0014 8348     		ldr	r0, .L49+4
 157 0016 844C     		ldr	r4, .L49+8
 158 0018 42F00402 		orr	r2, r2, #4
 159 001c 1A63     		str	r2, [r3, #48]
 160 001e 1A6B     		ldr	r2, [r3, #48]
 161 0020 02F00402 		and	r2, r2, #4
 162 0024 0192     		str	r2, [sp, #4]
 163 0026 019A     		ldr	r2, [sp, #4]
 164 0028 0295     		str	r5, [sp, #8]
 165 002a 1A6B     		ldr	r2, [r3, #48]
 166 002c 42F08002 		orr	r2, r2, #128
 167 0030 1A63     		str	r2, [r3, #48]
 168 0032 1A6B     		ldr	r2, [r3, #48]
 169 0034 02F08002 		and	r2, r2, #128
 170 0038 0292     		str	r2, [sp, #8]
 171 003a 029A     		ldr	r2, [sp, #8]
 172 003c 0395     		str	r5, [sp, #12]
 173 003e 1A6B     		ldr	r2, [r3, #48]
 174 0040 42F00102 		orr	r2, r2, #1
 175 0044 1A63     		str	r2, [r3, #48]
 176 0046 1A6B     		ldr	r2, [r3, #48]
ARM GAS  /tmp/ccIFAqGp.s 			page 4


 177 0048 02F00102 		and	r2, r2, #1
 178 004c 0392     		str	r2, [sp, #12]
 179 004e 039A     		ldr	r2, [sp, #12]
 180 0050 0495     		str	r5, [sp, #16]
 181 0052 1A6B     		ldr	r2, [r3, #48]
 182 0054 42F00202 		orr	r2, r2, #2
 183 0058 1A63     		str	r2, [r3, #48]
 184 005a 1B6B     		ldr	r3, [r3, #48]
 185 005c 03F00203 		and	r3, r3, #2
 186 0060 0493     		str	r3, [sp, #16]
 187 0062 2A46     		mov	r2, r5
 188 0064 2021     		movs	r1, #32
 189 0066 049B     		ldr	r3, [sp, #16]
 190 0068 FFF7FEFF 		bl	HAL_GPIO_WritePin
 191 006c 2A46     		mov	r2, r5
 192 006e 4FF44071 		mov	r1, #768
 193 0072 6E48     		ldr	r0, .L49+12
 194 0074 FFF7FEFF 		bl	HAL_GPIO_WritePin
 195 0078 4FF40052 		mov	r2, #8192
 196 007c 6C4B     		ldr	r3, .L49+16
 197 007e 6B48     		ldr	r0, .L49+12
 198 0080 0792     		str	r2, [sp, #28]
 199 0082 07A9     		add	r1, sp, #28
 200 0084 0893     		str	r3, [sp, #32]
 201 0086 0126     		movs	r6, #1
 202 0088 0995     		str	r5, [sp, #36]
 203 008a FFF7FEFF 		bl	HAL_GPIO_Init
 204 008e 2023     		movs	r3, #32
 205 0090 07A9     		add	r1, sp, #28
 206 0092 6448     		ldr	r0, .L49+4
 207 0094 0793     		str	r3, [sp, #28]
 208 0096 0995     		str	r5, [sp, #36]
 209 0098 0A95     		str	r5, [sp, #40]
 210 009a 0896     		str	r6, [sp, #32]
 211 009c FFF7FEFF 		bl	HAL_GPIO_Init
 212 00a0 4FF44073 		mov	r3, #768
 213 00a4 07A9     		add	r1, sp, #28
 214 00a6 6148     		ldr	r0, .L49+12
 215 00a8 0793     		str	r3, [sp, #28]
 216 00aa 0896     		str	r6, [sp, #32]
 217 00ac 0995     		str	r5, [sp, #36]
 218 00ae 0A95     		str	r5, [sp, #40]
 219 00b0 FFF7FEFF 		bl	HAL_GPIO_Init
 220 00b4 2A46     		mov	r2, r5
 221 00b6 2946     		mov	r1, r5
 222 00b8 2820     		movs	r0, #40
 223 00ba FFF7FEFF 		bl	HAL_NVIC_SetPriority
 224 00be 2820     		movs	r0, #40
 225 00c0 FFF7FEFF 		bl	HAL_NVIC_EnableIRQ
 226 00c4 5B49     		ldr	r1, .L49+20
 227 00c6 A560     		str	r5, [r4, #8]
 228 00c8 B422     		movs	r2, #180
 229 00ca 6423     		movs	r3, #100
 230 00cc 2046     		mov	r0, r4
 231 00ce 2561     		str	r5, [r4, #16]
 232 00d0 84E80600 		stmia	r4, {r1, r2}
 233 00d4 E360     		str	r3, [r4, #12]
ARM GAS  /tmp/ccIFAqGp.s 			page 5


 234 00d6 FFF7FEFF 		bl	HAL_TIM_PWM_Init
 235 00da 00B1     		cbz	r0, .L20
 236              	.L39:
 237 00dc FEE7     		b	.L39
 238              	.L20:
 239 00de 0346     		mov	r3, r0
 240 00e0 05A9     		add	r1, sp, #20
 241 00e2 2046     		mov	r0, r4
 242 00e4 0593     		str	r3, [sp, #20]
 243 00e6 0693     		str	r3, [sp, #24]
 244 00e8 FFF7FEFF 		bl	HAL_TIMEx_MasterConfigSynchronization
 245 00ec 00B1     		cbz	r0, .L22
 246              	.L40:
 247 00ee FEE7     		b	.L40
 248              	.L22:
 249 00f0 0246     		mov	r2, r0
 250 00f2 6025     		movs	r5, #96
 251 00f4 3223     		movs	r3, #50
 252 00f6 0990     		str	r0, [sp, #36]
 253 00f8 0B90     		str	r0, [sp, #44]
 254 00fa 07A9     		add	r1, sp, #28
 255 00fc 2046     		mov	r0, r4
 256 00fe 0795     		str	r5, [sp, #28]
 257 0100 0893     		str	r3, [sp, #32]
 258 0102 FFF7FEFF 		bl	HAL_TIM_PWM_ConfigChannel
 259 0106 00B1     		cbz	r0, .L24
 260              	.L41:
 261 0108 FEE7     		b	.L41
 262              	.L24:
 263 010a 0422     		movs	r2, #4
 264 010c 07A9     		add	r1, sp, #28
 265 010e 2046     		mov	r0, r4
 266 0110 FFF7FEFF 		bl	HAL_TIM_PWM_ConfigChannel
 267 0114 00B1     		cbz	r0, .L26
 268              	.L42:
 269 0116 FEE7     		b	.L42
 270              	.L26:
 271 0118 0822     		movs	r2, #8
 272 011a 07A9     		add	r1, sp, #28
 273 011c 2046     		mov	r0, r4
 274 011e FFF7FEFF 		bl	HAL_TIM_PWM_ConfigChannel
 275 0122 00B1     		cbz	r0, .L28
 276              	.L43:
 277 0124 FEE7     		b	.L43
 278              	.L28:
 279 0126 0C22     		movs	r2, #12
 280 0128 07A9     		add	r1, sp, #28
 281 012a 2046     		mov	r0, r4
 282 012c FFF7FEFF 		bl	HAL_TIM_PWM_ConfigChannel
 283 0130 0746     		mov	r7, r0
 284 0132 00B1     		cbz	r0, .L30
 285              	.L44:
 286 0134 FEE7     		b	.L44
 287              	.L30:
 288 0136 404D     		ldr	r5, .L49+24
 289 0138 2046     		mov	r0, r4
 290 013a FFF7FEFF 		bl	HAL_TIM_MspPostInit
ARM GAS  /tmp/ccIFAqGp.s 			page 6


 291 013e 3F49     		ldr	r1, .L49+28
 292 0140 3F4B     		ldr	r3, .L49+32
 293 0142 AB62     		str	r3, [r5, #40]
 294 0144 4FF48032 		mov	r2, #65536
 295 0148 2846     		mov	r0, r5
 296 014a AF60     		str	r7, [r5, #8]
 297 014c 2F61     		str	r7, [r5, #16]
 298 014e AF61     		str	r7, [r5, #24]
 299 0150 2E62     		str	r6, [r5, #32]
 300 0152 6E62     		str	r6, [r5, #36]
 301 0154 EF62     		str	r7, [r5, #44]
 302 0156 EF60     		str	r7, [r5, #12]
 303 0158 EE61     		str	r6, [r5, #28]
 304 015a 2F63     		str	r7, [r5, #48]
 305 015c 6E61     		str	r6, [r5, #20]
 306 015e 85E80600 		stmia	r5, {r1, r2}
 307 0162 FFF7FEFF 		bl	HAL_ADC_Init
 308 0166 0346     		mov	r3, r0
 309 0168 00B1     		cbz	r0, .L32
 310              	.L45:
 311 016a FEE7     		b	.L45
 312              	.L32:
 313 016c 07A9     		add	r1, sp, #28
 314 016e 2846     		mov	r0, r5
 315 0170 0793     		str	r3, [sp, #28]
 316 0172 0896     		str	r6, [sp, #32]
 317 0174 0993     		str	r3, [sp, #36]
 318 0176 FFF7FEFF 		bl	HAL_ADC_ConfigChannel
 319 017a 0246     		mov	r2, r0
 320 017c 00B1     		cbz	r0, .L34
 321              	.L46:
 322 017e FEE7     		b	.L46
 323              	.L34:
 324 0180 304B     		ldr	r3, .L49+36
 325 0182 314E     		ldr	r6, .L49+40
 326 0184 9860     		str	r0, [r3, #8]
 327 0186 4FF41651 		mov	r1, #9600
 328 018a 1846     		mov	r0, r3
 329 018c 0C25     		movs	r5, #12
 330 018e 5960     		str	r1, [r3, #4]
 331 0190 DA60     		str	r2, [r3, #12]
 332 0192 1A61     		str	r2, [r3, #16]
 333 0194 9A61     		str	r2, [r3, #24]
 334 0196 DA61     		str	r2, [r3, #28]
 335 0198 1E60     		str	r6, [r3]
 336 019a 5D61     		str	r5, [r3, #20]
 337 019c FFF7FEFF 		bl	HAL_UART_Init
 338 01a0 0146     		mov	r1, r0
 339 01a2 00B1     		cbz	r0, .L36
 340              	.L47:
 341 01a4 FEE7     		b	.L47
 342              	.L36:
 343 01a6 2046     		mov	r0, r4
 344 01a8 FFF7FEFF 		bl	HAL_TIM_PWM_Start
 345 01ac 0421     		movs	r1, #4
 346 01ae 2046     		mov	r0, r4
 347 01b0 FFF7FEFF 		bl	HAL_TIM_PWM_Start
ARM GAS  /tmp/ccIFAqGp.s 			page 7


 348 01b4 0821     		movs	r1, #8
 349 01b6 2046     		mov	r0, r4
 350 01b8 FFF7FEFF 		bl	HAL_TIM_PWM_Start
 351 01bc 2046     		mov	r0, r4
 352 01be 2946     		mov	r1, r5
 353 01c0 FFF7FEFF 		bl	HAL_TIM_PWM_Start
 354 01c4 214C     		ldr	r4, .L49+44
 355              	.L38:
 356 01c6 1C48     		ldr	r0, .L49+24
 357 01c8 FFF7FEFF 		bl	HAL_ADC_Start
 358 01cc 6421     		movs	r1, #100
 359 01ce 1A48     		ldr	r0, .L49+24
 360 01d0 FFF7FEFF 		bl	HAL_ADC_PollForConversion
 361 01d4 1848     		ldr	r0, .L49+24
 362 01d6 FFF7FEFF 		bl	HAL_ADC_GetValue
 363 01da 07EE900A 		vmov	s15, r0	@ int
 364 01de F8EE677A 		vcvt.f32.u32	s15, s15
 365 01e2 6420     		movs	r0, #100
 366 01e4 C4ED007A 		vstr.32	s15, [r4]
 367 01e8 FFF7FEFF 		bl	HAL_Delay
 368 01ec 2068     		ldr	r0, [r4]	@ float
 369 01ee FFF7FEFF 		bl	__aeabi_f2d
 370 01f2 0246     		mov	r2, r0
 371 01f4 0B46     		mov	r3, r1
 372 01f6 1648     		ldr	r0, .L49+48
 373 01f8 FFF7FEFF 		bl	printf
 374 01fc 2021     		movs	r1, #32
 375 01fe 0948     		ldr	r0, .L49+4
 376 0200 FFF7FEFF 		bl	HAL_GPIO_TogglePin
 377 0204 D4ED007A 		vldr.32	s15, [r4]
 378 0208 B0EE087A 		vmov.f32	s14, #3.0e+0
 379 020c 67EE877A 		vmul.f32	s15, s15, s14
 380 0210 FCEEE77A 		vcvt.u32.f32	s15, s15
 381 0214 17EE900A 		vmov	r0, s15	@ int
 382 0218 FFF7FEFF 		bl	HAL_Delay
 383 021c D3E7     		b	.L38
 384              	.L50:
 385 021e 00BF     		.align	2
 386              	.L49:
 387 0220 00380240 		.word	1073887232
 388 0224 00000240 		.word	1073872896
 389 0228 00000000 		.word	htim4
 390 022c 00080240 		.word	1073874944
 391 0230 00002110 		.word	270598144
 392 0234 00080040 		.word	1073743872
 393 0238 00000000 		.word	hadc1
 394 023c 00200140 		.word	1073815552
 395 0240 0100000F 		.word	251658241
 396 0244 00000000 		.word	huart2
 397 0248 00440040 		.word	1073759232
 398 024c 00000000 		.word	.LANCHOR0
 399 0250 00000000 		.word	.LC0
 401              		.section	.text.Error_Handler,"ax",%progbits
 402              		.align	2
 403              		.global	Error_Handler
 404              		.thumb
 405              		.thumb_func
ARM GAS  /tmp/ccIFAqGp.s 			page 8


 407              	Error_Handler:
 408              		@ Volatile: function does not return.
 409              		@ args = 0, pretend = 0, frame = 0
 410              		@ frame_needed = 0, uses_anonymous_args = 0
 411              		@ link register save eliminated.
 412              	.L52:
 413 0000 FEE7     		b	.L52
 415              		.global	value
 416              		.global	bufftx
 417              		.comm	adcIndex,2,2
 418              		.comm	ADC_raw,16,4
 419              		.global	motorTimer
 420              		.comm	newDutyCycle,2,2
 421              		.comm	oldDutyCycle,2,2
 422              		.comm	huart2,64,4
 423              		.comm	htim4,60,4
 424              		.comm	hadc1,72,4
 425 0002 00BF     		.section	.data.value,"aw",%progbits
 426              		.align	2
 427              		.set	.LANCHOR0,. + 0
 430              	value:
 431 0000 9A99993E 		.word	1050253722
 432              		.section	.data.bufftx,"aw",%progbits
 433              		.align	2
 436              	bufftx:
 437 0000 48656C6C 		.ascii	"Hello!\012\015\000"
 437      6F210A0D 
 437      00
 438 0009 00       		.space	1
 439              		.section	.rodata.str1.4,"aMS",%progbits,1
 440              		.align	2
 441              	.LC0:
 442 0000 41444320 		.ascii	"ADC value is NOW: %4.2f\012\015\000"
 442      76616C75 
 442      65206973 
 442      204E4F57 
 442      3A202534 
 443              		.section	.data.motorTimer,"aw",%progbits
 444              		.align	2
 447              	motorTimer:
 448 0000 00000000 		.word	htim4
 449              		.ident	"GCC: (GNU Tools for ARM Embedded Processors) 5.4.1 20160919 (release) [ARM/embedded-5-bran
ARM GAS  /tmp/ccIFAqGp.s 			page 9


DEFINED SYMBOLS
                            *ABS*:00000000 main.c
     /tmp/ccIFAqGp.s:18     .text.__io_putchar:00000000 $t
     /tmp/ccIFAqGp.s:23     .text.__io_putchar:00000000 __io_putchar
     /tmp/ccIFAqGp.s:41     .text.__io_putchar:00000020 $d
                            *COM*:00000040 huart2
     /tmp/ccIFAqGp.s:44     .text.SystemClock_Config:00000000 $t
     /tmp/ccIFAqGp.s:49     .text.SystemClock_Config:00000000 SystemClock_Config
     /tmp/ccIFAqGp.s:133    .text.SystemClock_Config:000000ac $d
     /tmp/ccIFAqGp.s:139    .text.startup.main:00000000 $t
     /tmp/ccIFAqGp.s:144    .text.startup.main:00000000 main
     /tmp/ccIFAqGp.s:387    .text.startup.main:00000220 $d
                            *COM*:0000003c htim4
                            *COM*:00000048 hadc1
     /tmp/ccIFAqGp.s:402    .text.Error_Handler:00000000 $t
     /tmp/ccIFAqGp.s:407    .text.Error_Handler:00000000 Error_Handler
     /tmp/ccIFAqGp.s:430    .data.value:00000000 value
     /tmp/ccIFAqGp.s:436    .data.bufftx:00000000 bufftx
                            *COM*:00000002 adcIndex
                            *COM*:00000010 ADC_raw
     /tmp/ccIFAqGp.s:447    .data.motorTimer:00000000 motorTimer
                            *COM*:00000002 newDutyCycle
                            *COM*:00000002 oldDutyCycle
     /tmp/ccIFAqGp.s:426    .data.value:00000000 $d
     /tmp/ccIFAqGp.s:433    .data.bufftx:00000000 $d
     /tmp/ccIFAqGp.s:440    .rodata.str1.4:00000000 $d
     /tmp/ccIFAqGp.s:444    .data.motorTimer:00000000 $d

UNDEFINED SYMBOLS
HAL_UART_Transmit
HAL_RCC_OscConfig
HAL_PWREx_EnableOverDrive
HAL_RCC_ClockConfig
HAL_RCC_GetHCLKFreq
HAL_SYSTICK_Config
HAL_SYSTICK_CLKSourceConfig
HAL_NVIC_SetPriority
__aeabi_f2d
HAL_Init
HAL_GPIO_WritePin
HAL_GPIO_Init
HAL_NVIC_EnableIRQ
HAL_TIM_PWM_Init
HAL_TIMEx_MasterConfigSynchronization
HAL_TIM_PWM_ConfigChannel
HAL_TIM_MspPostInit
HAL_ADC_Init
HAL_ADC_ConfigChannel
HAL_UART_Init
HAL_TIM_PWM_Start
HAL_ADC_Start
HAL_ADC_PollForConversion
HAL_ADC_GetValue
HAL_Delay
printf
HAL_GPIO_TogglePin
