ARM GAS  /var/folders/_j/px34bss161g6w2_6fxy_byhh0000gn/T//ccuT4Fas.s 			page 1


   1              		.syntax unified
   2              		.cpu cortex-m4
   3              		.eabi_attribute 27, 1
   4              		.fpu fpv4-sp-d16
   5              		.eabi_attribute 20, 1
   6              		.eabi_attribute 21, 1
   7              		.eabi_attribute 23, 3
   8              		.eabi_attribute 24, 1
   9              		.eabi_attribute 25, 1
  10              		.eabi_attribute 26, 1
  11              		.eabi_attribute 30, 2
  12              		.eabi_attribute 34, 1
  13              		.eabi_attribute 18, 4
  14              		.thumb
  15              		.file	"stm32f4xx_hal_cortex.c"
  16              		.section	.text.HAL_NVIC_SetPriorityGrouping,"ax",%progbits
  17              		.align	2
  18              		.global	HAL_NVIC_SetPriorityGrouping
  19              		.thumb
  20              		.thumb_func
  22              	HAL_NVIC_SetPriorityGrouping:
  23              		@ args = 0, pretend = 0, frame = 0
  24              		@ frame_needed = 0, uses_anonymous_args = 0
  25              		@ link register save eliminated.
  26 0000 074A     		ldr	r2, .L2
  27 0002 D168     		ldr	r1, [r2, #12]
  28 0004 4FF6FF03 		movw	r3, #63743
  29 0008 0B40     		ands	r3, r3, r1
  30 000a 43F0BF63 		orr	r3, r3, #100139008
  31 000e 00F00700 		and	r0, r0, #7
  32 0012 43F40033 		orr	r3, r3, #131072
  33 0016 43EA0023 		orr	r3, r3, r0, lsl #8
  34 001a D360     		str	r3, [r2, #12]
  35 001c 7047     		bx	lr
  36              	.L3:
  37 001e 00BF     		.align	2
  38              	.L2:
  39 0020 00ED00E0 		.word	-536810240
  41              		.section	.text.HAL_NVIC_SetPriority,"ax",%progbits
  42              		.align	2
  43              		.global	HAL_NVIC_SetPriority
  44              		.thumb
  45              		.thumb_func
  47              	HAL_NVIC_SetPriority:
  48              		@ args = 0, pretend = 0, frame = 0
  49              		@ frame_needed = 0, uses_anonymous_args = 0
  50              		@ link register save eliminated.
  51 0000 184B     		ldr	r3, .L12
  52 0002 DB68     		ldr	r3, [r3, #12]
  53 0004 C3F30223 		ubfx	r3, r3, #8, #3
  54 0008 30B4     		push	{r4, r5}
  55 000a C3F10705 		rsb	r5, r3, #7
  56 000e 042D     		cmp	r5, #4
  57 0010 03F10404 		add	r4, r3, #4
  58 0014 28BF     		it	cs
  59 0016 0425     		movcs	r5, #4
  60 0018 062C     		cmp	r4, #6
ARM GAS  /var/folders/_j/px34bss161g6w2_6fxy_byhh0000gn/T//ccuT4Fas.s 			page 2


  61 001a 17D9     		bls	.L8
  62 001c 033B     		subs	r3, r3, #3
  63 001e 0124     		movs	r4, #1
  64 0020 9C40     		lsls	r4, r4, r3
  65 0022 013C     		subs	r4, r4, #1
  66 0024 2240     		ands	r2, r2, r4
  67              	.L5:
  68 0026 0124     		movs	r4, #1
  69 0028 AC40     		lsls	r4, r4, r5
  70 002a 013C     		subs	r4, r4, #1
  71 002c 2140     		ands	r1, r1, r4
  72 002e 9940     		lsls	r1, r1, r3
  73 0030 0028     		cmp	r0, #0
  74 0032 42EA0102 		orr	r2, r2, r1
  75 0036 0CDB     		blt	.L11
  76 0038 00F16040 		add	r0, r0, #-536870912
  77 003c 00F56140 		add	r0, r0, #57600
  78 0040 1201     		lsls	r2, r2, #4
  79 0042 D2B2     		uxtb	r2, r2
  80 0044 80F80023 		strb	r2, [r0, #768]
  81 0048 30BC     		pop	{r4, r5}
  82 004a 7047     		bx	lr
  83              	.L8:
  84 004c 0022     		movs	r2, #0
  85 004e 1346     		mov	r3, r2
  86 0050 E9E7     		b	.L5
  87              	.L11:
  88 0052 054B     		ldr	r3, .L12+4
  89 0054 00F00F00 		and	r0, r0, #15
  90 0058 1201     		lsls	r2, r2, #4
  91 005a 0344     		add	r3, r3, r0
  92 005c D2B2     		uxtb	r2, r2
  93 005e 1A76     		strb	r2, [r3, #24]
  94 0060 30BC     		pop	{r4, r5}
  95 0062 7047     		bx	lr
  96              	.L13:
  97              		.align	2
  98              	.L12:
  99 0064 00ED00E0 		.word	-536810240
 100 0068 FCEC00E0 		.word	-536810244
 102              		.section	.text.HAL_NVIC_EnableIRQ,"ax",%progbits
 103              		.align	2
 104              		.global	HAL_NVIC_EnableIRQ
 105              		.thumb
 106              		.thumb_func
 108              	HAL_NVIC_EnableIRQ:
 109              		@ args = 0, pretend = 0, frame = 0
 110              		@ frame_needed = 0, uses_anonymous_args = 0
 111              		@ link register save eliminated.
 112 0000 00F01F01 		and	r1, r0, #31
 113 0004 0123     		movs	r3, #1
 114 0006 4009     		lsrs	r0, r0, #5
 115 0008 024A     		ldr	r2, .L15
 116 000a 8B40     		lsls	r3, r3, r1
 117 000c 42F82030 		str	r3, [r2, r0, lsl #2]
 118 0010 7047     		bx	lr
 119              	.L16:
ARM GAS  /var/folders/_j/px34bss161g6w2_6fxy_byhh0000gn/T//ccuT4Fas.s 			page 3


 120 0012 00BF     		.align	2
 121              	.L15:
 122 0014 00E100E0 		.word	-536813312
 124              		.section	.text.HAL_NVIC_DisableIRQ,"ax",%progbits
 125              		.align	2
 126              		.global	HAL_NVIC_DisableIRQ
 127              		.thumb
 128              		.thumb_func
 130              	HAL_NVIC_DisableIRQ:
 131              		@ args = 0, pretend = 0, frame = 0
 132              		@ frame_needed = 0, uses_anonymous_args = 0
 133              		@ link register save eliminated.
 134 0000 4309     		lsrs	r3, r0, #5
 135 0002 2033     		adds	r3, r3, #32
 136 0004 00F01F00 		and	r0, r0, #31
 137 0008 0122     		movs	r2, #1
 138 000a 0249     		ldr	r1, .L18
 139 000c 8240     		lsls	r2, r2, r0
 140 000e 41F82320 		str	r2, [r1, r3, lsl #2]
 141 0012 7047     		bx	lr
 142              	.L19:
 143              		.align	2
 144              	.L18:
 145 0014 00E100E0 		.word	-536813312
 147              		.section	.text.HAL_NVIC_SystemReset,"ax",%progbits
 148              		.align	2
 149              		.global	HAL_NVIC_SystemReset
 150              		.thumb
 151              		.thumb_func
 153              	HAL_NVIC_SystemReset:
 154              		@ Volatile: function does not return.
 155              		@ args = 0, pretend = 0, frame = 0
 156              		@ frame_needed = 0, uses_anonymous_args = 0
 157              		@ link register save eliminated.
 158              	@ 429 "Drivers/CMSIS/Include/cmsis_gcc.h" 1
 159 0000 BFF34F8F 		dsb 0xF
 160              	@ 0 "" 2
 161              		.thumb
 162 0004 0549     		ldr	r1, .L22
 163 0006 064B     		ldr	r3, .L22+4
 164 0008 CA68     		ldr	r2, [r1, #12]
 165 000a 02F4E062 		and	r2, r2, #1792
 166 000e 1343     		orrs	r3, r3, r2
 167 0010 CB60     		str	r3, [r1, #12]
 168              	@ 429 "Drivers/CMSIS/Include/cmsis_gcc.h" 1
 169 0012 BFF34F8F 		dsb 0xF
 170              	@ 0 "" 2
 171              		.thumb
 172              	.L21:
 173              	@ 375 "Drivers/CMSIS/Include/cmsis_gcc.h" 1
 174 0016 00BF     		nop
 175              	@ 0 "" 2
 176              		.thumb
 177 0018 FDE7     		b	.L21
 178              	.L23:
 179 001a 00BF     		.align	2
 180              	.L22:
ARM GAS  /var/folders/_j/px34bss161g6w2_6fxy_byhh0000gn/T//ccuT4Fas.s 			page 4


 181 001c 00ED00E0 		.word	-536810240
 182 0020 0400FA05 		.word	100270084
 184              		.section	.text.HAL_SYSTICK_Config,"ax",%progbits
 185              		.align	2
 186              		.global	HAL_SYSTICK_Config
 187              		.thumb
 188              		.thumb_func
 190              	HAL_SYSTICK_Config:
 191              		@ args = 0, pretend = 0, frame = 0
 192              		@ frame_needed = 0, uses_anonymous_args = 0
 193              		@ link register save eliminated.
 194 0000 0138     		subs	r0, r0, #1
 195 0002 B0F1807F 		cmp	r0, #16777216
 196 0006 0ED2     		bcs	.L26
 197 0008 084B     		ldr	r3, .L29
 198 000a 10B4     		push	{r4}
 199 000c 084C     		ldr	r4, .L29+4
 200 000e 5860     		str	r0, [r3, #4]
 201 0010 F020     		movs	r0, #240
 202 0012 84F82300 		strb	r0, [r4, #35]
 203 0016 0022     		movs	r2, #0
 204 0018 0721     		movs	r1, #7
 205 001a 1046     		mov	r0, r2
 206 001c 9A60     		str	r2, [r3, #8]
 207 001e 1960     		str	r1, [r3]
 208 0020 5DF8044B 		ldr	r4, [sp], #4
 209 0024 7047     		bx	lr
 210              	.L26:
 211 0026 0120     		movs	r0, #1
 212 0028 7047     		bx	lr
 213              	.L30:
 214 002a 00BF     		.align	2
 215              	.L29:
 216 002c 10E000E0 		.word	-536813552
 217 0030 00ED00E0 		.word	-536810240
 219              		.section	.text.HAL_MPU_ConfigRegion,"ax",%progbits
 220              		.align	2
 221              		.global	HAL_MPU_ConfigRegion
 222              		.thumb
 223              		.thumb_func
 225              	HAL_MPU_ConfigRegion:
 226              		@ args = 0, pretend = 0, frame = 0
 227              		@ frame_needed = 0, uses_anonymous_args = 0
 228 0000 2DE9F041 		push	{r4, r5, r6, r7, r8, lr}
 229 0004 144D     		ldr	r5, .L36
 230 0006 4378     		ldrb	r3, [r0, #1]	@ zero_extendqisi2
 231 0008 AB60     		str	r3, [r5, #8]
 232 000a 0378     		ldrb	r3, [r0]	@ zero_extendqisi2
 233 000c 1BB9     		cbnz	r3, .L35
 234 000e EB60     		str	r3, [r5, #12]
 235 0010 2B61     		str	r3, [r5, #16]
 236 0012 BDE8F081 		pop	{r4, r5, r6, r7, r8, pc}
 237              	.L35:
 238 0016 4368     		ldr	r3, [r0, #4]
 239 0018 EB60     		str	r3, [r5, #12]
 240 001a C67A     		ldrb	r6, [r0, #11]	@ zero_extendqisi2
 241 001c 90F80C80 		ldrb	r8, [r0, #12]	@ zero_extendqisi2
ARM GAS  /var/folders/_j/px34bss161g6w2_6fxy_byhh0000gn/T//ccuT4Fas.s 			page 5


 242 0020 427B     		ldrb	r2, [r0, #13]	@ zero_extendqisi2
 243 0022 C37B     		ldrb	r3, [r0, #15]	@ zero_extendqisi2
 244 0024 0478     		ldrb	r4, [r0]	@ zero_extendqisi2
 245 0026 817A     		ldrb	r1, [r0, #10]	@ zero_extendqisi2
 246 0028 90F80EC0 		ldrb	ip, [r0, #14]	@ zero_extendqisi2
 247 002c 90F809E0 		ldrb	lr, [r0, #9]	@ zero_extendqisi2
 248 0030 077A     		ldrb	r7, [r0, #8]	@ zero_extendqisi2
 249 0032 3006     		lsls	r0, r6, #24
 250 0034 40EA0870 		orr	r0, r0, r8, lsl #28
 251 0038 2043     		orrs	r0, r0, r4
 252 003a 40EAC141 		orr	r1, r0, r1, lsl #19
 253 003e 41EA8241 		orr	r1, r1, r2, lsl #18
 254 0042 41EA4C42 		orr	r2, r1, ip, lsl #17
 255 0046 42EA0342 		orr	r2, r2, r3, lsl #16
 256 004a 42EA0E23 		orr	r3, r2, lr, lsl #8
 257 004e 43EA4703 		orr	r3, r3, r7, lsl #1
 258 0052 2B61     		str	r3, [r5, #16]
 259 0054 BDE8F081 		pop	{r4, r5, r6, r7, r8, pc}
 260              	.L37:
 261              		.align	2
 262              	.L36:
 263 0058 90ED00E0 		.word	-536810096
 265              		.section	.text.HAL_NVIC_GetPriorityGrouping,"ax",%progbits
 266              		.align	2
 267              		.global	HAL_NVIC_GetPriorityGrouping
 268              		.thumb
 269              		.thumb_func
 271              	HAL_NVIC_GetPriorityGrouping:
 272              		@ args = 0, pretend = 0, frame = 0
 273              		@ frame_needed = 0, uses_anonymous_args = 0
 274              		@ link register save eliminated.
 275 0000 024B     		ldr	r3, .L39
 276 0002 D868     		ldr	r0, [r3, #12]
 277 0004 C0F30220 		ubfx	r0, r0, #8, #3
 278 0008 7047     		bx	lr
 279              	.L40:
 280 000a 00BF     		.align	2
 281              	.L39:
 282 000c 00ED00E0 		.word	-536810240
 284              		.section	.text.HAL_NVIC_GetPriority,"ax",%progbits
 285              		.align	2
 286              		.global	HAL_NVIC_GetPriority
 287              		.thumb
 288              		.thumb_func
 290              	HAL_NVIC_GetPriority:
 291              		@ args = 0, pretend = 0, frame = 0
 292              		@ frame_needed = 0, uses_anonymous_args = 0
 293              		@ link register save eliminated.
 294 0000 0028     		cmp	r0, #0
 295 0002 70B4     		push	{r4, r5, r6}
 296 0004 23DB     		blt	.L47
 297 0006 00F16040 		add	r0, r0, #-536870912
 298 000a 00F56140 		add	r0, r0, #57600
 299 000e 90F80043 		ldrb	r4, [r0, #768]	@ zero_extendqisi2
 300 0012 2409     		lsrs	r4, r4, #4
 301              	.L43:
 302 0014 01F00701 		and	r1, r1, #7
ARM GAS  /var/folders/_j/px34bss161g6w2_6fxy_byhh0000gn/T//ccuT4Fas.s 			page 6


 303 0018 C1F10706 		rsb	r6, r1, #7
 304 001c 042E     		cmp	r6, #4
 305 001e 01F10400 		add	r0, r1, #4
 306 0022 28BF     		it	cs
 307 0024 0426     		movcs	r6, #4
 308 0026 0628     		cmp	r0, #6
 309 0028 0ED9     		bls	.L45
 310 002a 0339     		subs	r1, r1, #3
 311 002c 0125     		movs	r5, #1
 312 002e 8D40     		lsls	r5, r5, r1
 313 0030 013D     		subs	r5, r5, #1
 314 0032 2540     		ands	r5, r5, r4
 315              	.L44:
 316 0034 0120     		movs	r0, #1
 317 0036 B040     		lsls	r0, r0, r6
 318 0038 CC40     		lsrs	r4, r4, r1
 319 003a 0138     		subs	r0, r0, #1
 320 003c 04EA0001 		and	r1, r4, r0
 321 0040 1160     		str	r1, [r2]
 322 0042 1D60     		str	r5, [r3]
 323 0044 70BC     		pop	{r4, r5, r6}
 324 0046 7047     		bx	lr
 325              	.L45:
 326 0048 0025     		movs	r5, #0
 327 004a 2946     		mov	r1, r5
 328 004c F2E7     		b	.L44
 329              	.L47:
 330 004e 034C     		ldr	r4, .L48
 331 0050 00F00F00 		and	r0, r0, #15
 332 0054 0444     		add	r4, r4, r0
 333 0056 247E     		ldrb	r4, [r4, #24]	@ zero_extendqisi2
 334 0058 2409     		lsrs	r4, r4, #4
 335 005a DBE7     		b	.L43
 336              	.L49:
 337              		.align	2
 338              	.L48:
 339 005c FCEC00E0 		.word	-536810244
 341              		.section	.text.HAL_NVIC_SetPendingIRQ,"ax",%progbits
 342              		.align	2
 343              		.global	HAL_NVIC_SetPendingIRQ
 344              		.thumb
 345              		.thumb_func
 347              	HAL_NVIC_SetPendingIRQ:
 348              		@ args = 0, pretend = 0, frame = 0
 349              		@ frame_needed = 0, uses_anonymous_args = 0
 350              		@ link register save eliminated.
 351 0000 4309     		lsrs	r3, r0, #5
 352 0002 4033     		adds	r3, r3, #64
 353 0004 00F01F00 		and	r0, r0, #31
 354 0008 0122     		movs	r2, #1
 355 000a 0249     		ldr	r1, .L51
 356 000c 8240     		lsls	r2, r2, r0
 357 000e 41F82320 		str	r2, [r1, r3, lsl #2]
 358 0012 7047     		bx	lr
 359              	.L52:
 360              		.align	2
 361              	.L51:
ARM GAS  /var/folders/_j/px34bss161g6w2_6fxy_byhh0000gn/T//ccuT4Fas.s 			page 7


 362 0014 00E100E0 		.word	-536813312
 364              		.section	.text.HAL_NVIC_GetPendingIRQ,"ax",%progbits
 365              		.align	2
 366              		.global	HAL_NVIC_GetPendingIRQ
 367              		.thumb
 368              		.thumb_func
 370              	HAL_NVIC_GetPendingIRQ:
 371              		@ args = 0, pretend = 0, frame = 0
 372              		@ frame_needed = 0, uses_anonymous_args = 0
 373              		@ link register save eliminated.
 374 0000 4309     		lsrs	r3, r0, #5
 375 0002 4033     		adds	r3, r3, #64
 376 0004 044A     		ldr	r2, .L54
 377 0006 52F82320 		ldr	r2, [r2, r3, lsl #2]
 378 000a 00F01F03 		and	r3, r0, #31
 379 000e 22FA03F0 		lsr	r0, r2, r3
 380 0012 00F00100 		and	r0, r0, #1
 381 0016 7047     		bx	lr
 382              	.L55:
 383              		.align	2
 384              	.L54:
 385 0018 00E100E0 		.word	-536813312
 387              		.section	.text.HAL_NVIC_ClearPendingIRQ,"ax",%progbits
 388              		.align	2
 389              		.global	HAL_NVIC_ClearPendingIRQ
 390              		.thumb
 391              		.thumb_func
 393              	HAL_NVIC_ClearPendingIRQ:
 394              		@ args = 0, pretend = 0, frame = 0
 395              		@ frame_needed = 0, uses_anonymous_args = 0
 396              		@ link register save eliminated.
 397 0000 4309     		lsrs	r3, r0, #5
 398 0002 6033     		adds	r3, r3, #96
 399 0004 00F01F00 		and	r0, r0, #31
 400 0008 0122     		movs	r2, #1
 401 000a 0249     		ldr	r1, .L57
 402 000c 8240     		lsls	r2, r2, r0
 403 000e 41F82320 		str	r2, [r1, r3, lsl #2]
 404 0012 7047     		bx	lr
 405              	.L58:
 406              		.align	2
 407              	.L57:
 408 0014 00E100E0 		.word	-536813312
 410              		.section	.text.HAL_NVIC_GetActive,"ax",%progbits
 411              		.align	2
 412              		.global	HAL_NVIC_GetActive
 413              		.thumb
 414              		.thumb_func
 416              	HAL_NVIC_GetActive:
 417              		@ args = 0, pretend = 0, frame = 0
 418              		@ frame_needed = 0, uses_anonymous_args = 0
 419              		@ link register save eliminated.
 420 0000 4309     		lsrs	r3, r0, #5
 421 0002 8033     		adds	r3, r3, #128
 422 0004 044A     		ldr	r2, .L60
 423 0006 52F82320 		ldr	r2, [r2, r3, lsl #2]
 424 000a 00F01F03 		and	r3, r0, #31
ARM GAS  /var/folders/_j/px34bss161g6w2_6fxy_byhh0000gn/T//ccuT4Fas.s 			page 8


 425 000e 22FA03F0 		lsr	r0, r2, r3
 426 0012 00F00100 		and	r0, r0, #1
 427 0016 7047     		bx	lr
 428              	.L61:
 429              		.align	2
 430              	.L60:
 431 0018 00E100E0 		.word	-536813312
 433              		.section	.text.HAL_SYSTICK_CLKSourceConfig,"ax",%progbits
 434              		.align	2
 435              		.global	HAL_SYSTICK_CLKSourceConfig
 436              		.thumb
 437              		.thumb_func
 439              	HAL_SYSTICK_CLKSourceConfig:
 440              		@ args = 0, pretend = 0, frame = 0
 441              		@ frame_needed = 0, uses_anonymous_args = 0
 442              		@ link register save eliminated.
 443 0000 044A     		ldr	r2, .L65
 444 0002 1368     		ldr	r3, [r2]
 445 0004 0428     		cmp	r0, #4
 446 0006 0CBF     		ite	eq
 447 0008 43F00403 		orreq	r3, r3, #4
 448 000c 23F00403 		bicne	r3, r3, #4
 449 0010 1360     		str	r3, [r2]
 450 0012 7047     		bx	lr
 451              	.L66:
 452              		.align	2
 453              	.L65:
 454 0014 10E000E0 		.word	-536813552
 456              		.section	.text.HAL_SYSTICK_Callback,"ax",%progbits
 457              		.align	2
 458              		.weak	HAL_SYSTICK_Callback
 459              		.thumb
 460              		.thumb_func
 462              	HAL_SYSTICK_Callback:
 463              		@ args = 0, pretend = 0, frame = 0
 464              		@ frame_needed = 0, uses_anonymous_args = 0
 465              		@ link register save eliminated.
 466 0000 7047     		bx	lr
 468 0002 00BF     		.section	.text.HAL_SYSTICK_IRQHandler,"ax",%progbits
 469              		.align	2
 470              		.global	HAL_SYSTICK_IRQHandler
 471              		.thumb
 472              		.thumb_func
 474              	HAL_SYSTICK_IRQHandler:
 475              		@ args = 0, pretend = 0, frame = 0
 476              		@ frame_needed = 0, uses_anonymous_args = 0
 477 0000 08B5     		push	{r3, lr}
 478 0002 FFF7FEFF 		bl	HAL_SYSTICK_Callback
 479 0006 08BD     		pop	{r3, pc}
 481              		.ident	"GCC: (GNU Tools for ARM Embedded Processors) 4.9.3 20150529 (release) [ARM/embedded-4_9-br
ARM GAS  /var/folders/_j/px34bss161g6w2_6fxy_byhh0000gn/T//ccuT4Fas.s 			page 9

