ARM GAS  /tmp/ccQwbCpg.s 			page 1


   1              		.syntax unified
   2              		.cpu cortex-m4
   3              		.eabi_attribute 27, 1
   4              		.fpu fpv4-sp-d16
   5              		.eabi_attribute 20, 1
   6              		.eabi_attribute 21, 1
   7              		.eabi_attribute 23, 3
   8              		.eabi_attribute 24, 1
   9              		.eabi_attribute 25, 1
  10              		.eabi_attribute 26, 1
  11              		.eabi_attribute 30, 2
  12              		.eabi_attribute 34, 1
  13              		.eabi_attribute 18, 4
  14              		.thumb
  15              		.syntax unified
  16              		.file	"stm32f4xx_hal_rcc_ex.c"
  17              		.section	.text.HAL_RCC_DeInit,"ax",%progbits
  18              		.align	2
  19              		.global	HAL_RCC_DeInit
  20              		.thumb
  21              		.thumb_func
  23              	HAL_RCC_DeInit:
  24              		@ args = 0, pretend = 0, frame = 0
  25              		@ frame_needed = 0, uses_anonymous_args = 0
  26              		@ link register save eliminated.
  27 0000 134B     		ldr	r3, .L3
  28 0002 1448     		ldr	r0, .L3+4
  29 0004 1A68     		ldr	r2, [r3]
  30 0006 0021     		movs	r1, #0
  31 0008 42F08102 		orr	r2, r2, #129
  32 000c 30B4     		push	{r4, r5}
  33 000e 1A60     		str	r2, [r3]
  34 0010 9960     		str	r1, [r3, #8]
  35 0012 1A68     		ldr	r2, [r3]
  36 0014 104C     		ldr	r4, .L3+8
  37 0016 114D     		ldr	r5, .L3+12
  38 0018 22F0A162 		bic	r2, r2, #84410368
  39 001c 22F48032 		bic	r2, r2, #65536
  40 0020 1A60     		str	r2, [r3]
  41 0022 5960     		str	r1, [r3, #4]
  42 0024 5A68     		ldr	r2, [r3, #4]
  43 0026 1043     		orrs	r0, r0, r2
  44 0028 5860     		str	r0, [r3, #4]
  45 002a C3F88410 		str	r1, [r3, #132]
  46 002e D3F88420 		ldr	r2, [r3, #132]
  47 0032 42F00052 		orr	r2, r2, #536870912
  48 0036 42F44052 		orr	r2, r2, #12288
  49 003a C3F88420 		str	r2, [r3, #132]
  50 003e 1A68     		ldr	r2, [r3]
  51 0040 22F48022 		bic	r2, r2, #262144
  52 0044 1A60     		str	r2, [r3]
  53 0046 D960     		str	r1, [r3, #12]
  54 0048 2560     		str	r5, [r4]
  55 004a 30BC     		pop	{r4, r5}
  56 004c 7047     		bx	lr
  57              	.L4:
  58 004e 00BF     		.align	2
ARM GAS  /tmp/ccQwbCpg.s 			page 2


  59              	.L3:
  60 0050 00380240 		.word	1073887232
  61 0054 10300004 		.word	67121168
  62 0058 00000000 		.word	SystemCoreClock
  63 005c 0024F400 		.word	16000000
  65              		.section	.text.HAL_RCCEx_PeriphCLKConfig,"ax",%progbits
  66              		.align	2
  67              		.global	HAL_RCCEx_PeriphCLKConfig
  68              		.thumb
  69              		.thumb_func
  71              	HAL_RCCEx_PeriphCLKConfig:
  72              		@ args = 0, pretend = 0, frame = 16
  73              		@ frame_needed = 0, uses_anonymous_args = 0
  74 0000 2DE9F04F 		push	{r4, r5, r6, r7, r8, r9, r10, fp, lr}
  75 0004 0368     		ldr	r3, [r0]
  76 0006 13F00106 		ands	r6, r3, #1
  77 000a 85B0     		sub	sp, sp, #20
  78 000c 0446     		mov	r4, r0
  79 000e 0BD0     		beq	.L6
  80 0010 B049     		ldr	r1, .L140
  81 0012 866B     		ldr	r6, [r0, #56]
  82 0014 D1F88C20 		ldr	r2, [r1, #140]
  83 0018 22F0C062 		bic	r2, r2, #100663296
  84 001c 3243     		orrs	r2, r2, r6
  85 001e B6FA86F6 		clz	r6, r6
  86 0022 C1F88C20 		str	r2, [r1, #140]
  87 0026 7609     		lsrs	r6, r6, #5
  88              	.L6:
  89 0028 9A07     		lsls	r2, r3, #30
  90 002a 0BD5     		bpl	.L7
  91 002c A949     		ldr	r1, .L140
  92 002e E06B     		ldr	r0, [r4, #60]
  93 0030 D1F88C20 		ldr	r2, [r1, #140]
  94 0034 22F0C052 		bic	r2, r2, #402653184
  95 0038 0243     		orrs	r2, r2, r0
  96 003a 0028     		cmp	r0, #0
  97 003c C1F88C20 		str	r2, [r1, #140]
  98 0040 08BF     		it	eq
  99 0042 0126     		moveq	r6, #1
 100              	.L7:
 101 0044 13F00405 		ands	r5, r3, #4
 102 0048 12D0     		beq	.L8
 103 004a A249     		ldr	r1, .L140
 104 004c 256B     		ldr	r5, [r4, #48]
 105 004e D1F88C20 		ldr	r2, [r1, #140]
 106 0052 B5F5801F 		cmp	r5, #1048576
 107 0056 22F44012 		bic	r2, r2, #3145728
 108 005a 42EA0502 		orr	r2, r2, r5
 109 005e 18BF     		it	ne
 110 0060 B5FA85F5 		clzne	r5, r5
 111 0064 C1F88C20 		str	r2, [r1, #140]
 112 0068 12BF     		itee	ne
 113 006a 6D09     		lsrne	r5, r5, #5
 114 006c 0025     		moveq	r5, #0
 115 006e 0126     		moveq	r6, #1
 116              	.L8:
 117 0070 1F07     		lsls	r7, r3, #28
ARM GAS  /tmp/ccQwbCpg.s 			page 3


 118 0072 0FD5     		bpl	.L9
 119 0074 9748     		ldr	r0, .L140
 120 0076 616B     		ldr	r1, [r4, #52]
 121 0078 D0F88C20 		ldr	r2, [r0, #140]
 122 007c 22F44002 		bic	r2, r2, #12582912
 123 0080 0A43     		orrs	r2, r2, r1
 124 0082 B1F5800F 		cmp	r1, #4194304
 125 0086 C0F88C20 		str	r2, [r0, #140]
 126 008a 00F05E81 		beq	.L58
 127 008e 0029     		cmp	r1, #0
 128 0090 08BF     		it	eq
 129 0092 0125     		moveq	r5, #1
 130              	.L9:
 131 0094 9806     		lsls	r0, r3, #26
 132 0096 00F10881 		bmi	.L133
 133              	.L10:
 134 009a 2368     		ldr	r3, [r4]
 135 009c DF06     		lsls	r7, r3, #27
 136 009e 04D5     		bpl	.L22
 137 00a0 8D4B     		ldr	r3, .L140+4
 138 00a2 94F85820 		ldrb	r2, [r4, #88]	@ zero_extendqisi2
 139 00a6 1A60     		str	r2, [r3]
 140 00a8 2368     		ldr	r3, [r4]
 141              	.L22:
 142 00aa 1806     		lsls	r0, r3, #24
 143 00ac 08D5     		bpl	.L23
 144 00ae 8948     		ldr	r0, .L140
 145 00b0 E26C     		ldr	r2, [r4, #76]
 146 00b2 D0F89410 		ldr	r1, [r0, #148]
 147 00b6 21F44001 		bic	r1, r1, #12582912
 148 00ba 0A43     		orrs	r2, r2, r1
 149 00bc C0F89420 		str	r2, [r0, #148]
 150              	.L23:
 151 00c0 5906     		lsls	r1, r3, #25
 152 00c2 08D5     		bpl	.L24
 153 00c4 8348     		ldr	r0, .L140
 154 00c6 A26C     		ldr	r2, [r4, #72]
 155 00c8 D0F89410 		ldr	r1, [r0, #148]
 156 00cc 21F08061 		bic	r1, r1, #67108864
 157 00d0 0A43     		orrs	r2, r2, r1
 158 00d2 C0F89420 		str	r2, [r0, #148]
 159              	.L24:
 160 00d6 DA05     		lsls	r2, r3, #23
 161 00d8 0CD5     		bpl	.L25
 162 00da 7E49     		ldr	r1, .L140
 163 00dc 606D     		ldr	r0, [r4, #84]
 164 00de D1F89420 		ldr	r2, [r1, #148]
 165 00e2 22F00062 		bic	r2, r2, #134217728
 166 00e6 0243     		orrs	r2, r2, r0
 167 00e8 B0F1006F 		cmp	r0, #134217728
 168 00ec C1F89420 		str	r2, [r1, #148]
 169 00f0 08BF     		it	eq
 170 00f2 0125     		moveq	r5, #1
 171              	.L25:
 172 00f4 9F05     		lsls	r7, r3, #22
 173 00f6 08D5     		bpl	.L26
 174 00f8 7648     		ldr	r0, .L140
ARM GAS  /tmp/ccQwbCpg.s 			page 4


 175 00fa 626C     		ldr	r2, [r4, #68]
 176 00fc D0F89410 		ldr	r1, [r0, #148]
 177 0100 21F08051 		bic	r1, r1, #268435456
 178 0104 0A43     		orrs	r2, r2, r1
 179 0106 C0F89420 		str	r2, [r0, #148]
 180              	.L26:
 181 010a 5805     		lsls	r0, r3, #21
 182 010c 0BD4     		bmi	.L27
 183              	.L30:
 184 010e 012E     		cmp	r6, #1
 185 0110 15D0     		beq	.L28
 186 0112 B3F5006F 		cmp	r3, #2048
 187 0116 12D0     		beq	.L28
 188              	.L45:
 189 0118 012D     		cmp	r5, #1
 190 011a 00F01881 		beq	.L134
 191              	.L33:
 192 011e 0020     		movs	r0, #0
 193 0120 05B0     		add	sp, sp, #20
 194              		@ sp needed
 195 0122 BDE8F08F 		pop	{r4, r5, r6, r7, r8, r9, r10, fp, pc}
 196              	.L27:
 197 0126 6B48     		ldr	r0, .L140
 198 0128 216D     		ldr	r1, [r4, #80]
 199 012a D0F89420 		ldr	r2, [r0, #148]
 200 012e 22F00052 		bic	r2, r2, #536870912
 201 0132 0A43     		orrs	r2, r2, r1
 202 0134 B1F1005F 		cmp	r1, #536870912
 203 0138 C0F89420 		str	r2, [r0, #148]
 204 013c E7D1     		bne	.L30
 205              	.L28:
 206 013e 674B     		ldr	r3, .L140+8
 207 0140 644E     		ldr	r6, .L140
 208 0142 0022     		movs	r2, #0
 209 0144 1A60     		str	r2, [r3]
 210 0146 FFF7FEFF 		bl	HAL_GetTick
 211 014a 0746     		mov	r7, r0
 212 014c 05E0     		b	.L31
 213              	.L34:
 214 014e FFF7FEFF 		bl	HAL_GetTick
 215 0152 C01B     		subs	r0, r0, r7
 216 0154 0228     		cmp	r0, #2
 217 0156 00F2A480 		bhi	.L18
 218              	.L31:
 219 015a 3368     		ldr	r3, [r6]
 220 015c 1901     		lsls	r1, r3, #4
 221 015e F6D4     		bmi	.L34
 222 0160 2168     		ldr	r1, [r4]
 223 0162 CA07     		lsls	r2, r1, #31
 224 0164 40F15A81 		bpl	.L35
 225 0168 A36B     		ldr	r3, [r4, #56]
 226 016a 002B     		cmp	r3, #0
 227 016c 40F05681 		bne	.L35
 228              	.L36:
 229 0170 DFF860E1 		ldr	lr, .L140
 230 0174 4FF4403C 		mov	ip, #196608
 231 0178 DEF88460 		ldr	r6, [lr, #132]
ARM GAS  /tmp/ccQwbCpg.s 			page 5


 232              		.syntax unified
 233              	@ 531 "Drivers/CMSIS/Include/cmsis_gcc.h" 1
 234 017c 9CFAACF2 		rbit r2, ip
 235              	@ 0 "" 2
 236              		.thumb
 237              		.syntax unified
 238 0180 4FF07063 		mov	r3, #251658240
 239 0184 B2FA82FA 		clz	r10, r2
 240 0188 DEF88470 		ldr	r7, [lr, #132]
 241              		.syntax unified
 242              	@ 531 "Drivers/CMSIS/Include/cmsis_gcc.h" 1
 243 018c 93FAA3F8 		rbit r8, r3
 244              	@ 0 "" 2
 245              		.thumb
 246              		.syntax unified
 247 0190 47F6C079 		movw	r9, #32704
 248 0194 B8FA88F8 		clz	r8, r8
 249              		.syntax unified
 250              	@ 531 "Drivers/CMSIS/Include/cmsis_gcc.h" 1
 251 0198 99FAA9F9 		rbit r9, r9
 252              	@ 0 "" 2
 253              		.thumb
 254              		.syntax unified
 255 019c B9FA89F9 		clz	r9, r9
 256              		.syntax unified
 257              	@ 531 "Drivers/CMSIS/Include/cmsis_gcc.h" 1
 258 01a0 9CFAACFC 		rbit ip, ip
 259              	@ 0 "" 2
 260              		.thumb
 261              		.syntax unified
 262 01a4 BCFA8CFC 		clz	ip, ip
 263              		.syntax unified
 264              	@ 531 "Drivers/CMSIS/Include/cmsis_gcc.h" 1
 265 01a8 93FAA3F3 		rbit r3, r3
 266              	@ 0 "" 2
 267              		.thumb
 268              		.syntax unified
 269 01ac 4FF0E040 		mov	r0, #1879048192
 270 01b0 B3FA83F3 		clz	r3, r3
 271              		.syntax unified
 272              	@ 531 "Drivers/CMSIS/Include/cmsis_gcc.h" 1
 273 01b4 90FAA0F0 		rbit r0, r0
 274              	@ 0 "" 2
 275              		.thumb
 276              		.syntax unified
 277 01b8 06F44032 		and	r2, r6, #196608
 278 01bc A668     		ldr	r6, [r4, #8]
 279 01be 0196     		str	r6, [sp, #4]
 280 01c0 6669     		ldr	r6, [r4, #20]
 281 01c2 B0FA80F0 		clz	r0, r0
 282 01c6 06FA00F0 		lsl	r0, r6, r0
 283 01ca 019E     		ldr	r6, [sp, #4]
 284 01cc 22FA0AF2 		lsr	r2, r2, r10
 285 01d0 06FA09F9 		lsl	r9, r6, r9
 286 01d4 0132     		adds	r2, r2, #1
 287 01d6 6668     		ldr	r6, [r4, #4]
 288 01d8 07F07067 		and	r7, r7, #251658240
ARM GAS  /tmp/ccQwbCpg.s 			page 6


 289 01dc 22F00042 		bic	r2, r2, #-2147483648
 290 01e0 27FA08F7 		lsr	r7, r7, r8
 291 01e4 49EA0000 		orr	r0, r9, r0
 292 01e8 9F40     		lsls	r7, r7, r3
 293 01ea 013A     		subs	r2, r2, #1
 294 01ec 40EA0603 		orr	r3, r0, r6
 295 01f0 02FA0CF2 		lsl	r2, r2, ip
 296 01f4 3B43     		orrs	r3, r3, r7
 297 01f6 1343     		orrs	r3, r3, r2
 298 01f8 CEF88430 		str	r3, [lr, #132]
 299              	.L37:
 300 01fc 4F07     		lsls	r7, r1, #29
 301 01fe 04D5     		bpl	.L38
 302 0200 236B     		ldr	r3, [r4, #48]
 303 0202 B3F5801F 		cmp	r3, #1048576
 304 0206 00F02781 		beq	.L39
 305              	.L38:
 306 020a 0E07     		lsls	r6, r1, #28
 307 020c 04D5     		bpl	.L40
 308 020e 636B     		ldr	r3, [r4, #52]
 309 0210 B3F5800F 		cmp	r3, #4194304
 310 0214 00F02081 		beq	.L39
 311              	.L40:
 312 0218 4805     		lsls	r0, r1, #21
 313 021a 04D5     		bpl	.L41
 314 021c 236D     		ldr	r3, [r4, #80]
 315 021e B3F1005F 		cmp	r3, #536870912
 316 0222 00F07081 		beq	.L135
 317              	.L41:
 318 0226 0A05     		lsls	r2, r1, #20
 319 0228 2BD5     		bpl	.L42
 320 022a 47F6C076 		movw	r6, #32704
 321              		.syntax unified
 322              	@ 531 "Drivers/CMSIS/Include/cmsis_gcc.h" 1
 323 022e 96FAA6F6 		rbit r6, r6
 324              	@ 0 "" 2
 325              		.thumb
 326              		.syntax unified
 327 0232 4FF4403C 		mov	ip, #196608
 328 0236 B6FA86FE 		clz	lr, r6
 329              		.syntax unified
 330              	@ 531 "Drivers/CMSIS/Include/cmsis_gcc.h" 1
 331 023a 9CFAACF3 		rbit r3, ip
 332              	@ 0 "" 2
 333              		.thumb
 334              		.syntax unified
 335 023e 4FF07061 		mov	r1, #251658240
 336 0242 B3FA83FC 		clz	ip, r3
 337              		.syntax unified
 338              	@ 531 "Drivers/CMSIS/Include/cmsis_gcc.h" 1
 339 0246 91FAA1F1 		rbit r1, r1
 340              	@ 0 "" 2
 341              		.thumb
 342              		.syntax unified
 343 024a 4FF0E040 		mov	r0, #1879048192
 344 024e B1FA81F7 		clz	r7, r1
 345              		.syntax unified
ARM GAS  /tmp/ccQwbCpg.s 			page 7


 346              	@ 531 "Drivers/CMSIS/Include/cmsis_gcc.h" 1
 347 0252 90FAA0F0 		rbit r0, r0
 348              	@ 0 "" 2
 349              		.thumb
 350              		.syntax unified
 351 0256 E368     		ldr	r3, [r4, #12]
 352 0258 A668     		ldr	r6, [r4, #8]
 353 025a 2169     		ldr	r1, [r4, #16]
 354 025c 6269     		ldr	r2, [r4, #20]
 355 025e 5B08     		lsrs	r3, r3, #1
 356 0260 013B     		subs	r3, r3, #1
 357 0262 06FA0EF6 		lsl	r6, r6, lr
 358 0266 03FA0CF3 		lsl	r3, r3, ip
 359 026a 3343     		orrs	r3, r3, r6
 360 026c 6668     		ldr	r6, [r4, #4]
 361 026e B0FA80F0 		clz	r0, r0
 362 0272 3343     		orrs	r3, r3, r6
 363 0274 B940     		lsls	r1, r1, r7
 364 0276 1943     		orrs	r1, r1, r3
 365 0278 8240     		lsls	r2, r2, r0
 366 027a 164B     		ldr	r3, .L140
 367 027c 0A43     		orrs	r2, r2, r1
 368 027e C3F88420 		str	r2, [r3, #132]
 369              	.L42:
 370 0282 164B     		ldr	r3, .L140+8
 371 0284 134E     		ldr	r6, .L140
 372 0286 0122     		movs	r2, #1
 373 0288 1A60     		str	r2, [r3]
 374 028a FFF7FEFF 		bl	HAL_GetTick
 375 028e 0746     		mov	r7, r0
 376              	.L43:
 377 0290 3368     		ldr	r3, [r6]
 378 0292 1B01     		lsls	r3, r3, #4
 379 0294 3FF540AF 		bmi	.L45
 380 0298 FFF7FEFF 		bl	HAL_GetTick
 381 029c C01B     		subs	r0, r0, r7
 382 029e 0228     		cmp	r0, #2
 383 02a0 F6D9     		bls	.L43
 384              	.L18:
 385 02a2 0320     		movs	r0, #3
 386 02a4 05B0     		add	sp, sp, #20
 387              		@ sp needed
 388 02a6 BDE8F08F 		pop	{r4, r5, r6, r7, r8, r9, r10, fp, pc}
 389              	.L133:
 390 02aa 0A4B     		ldr	r3, .L140
 391 02ac 0C4F     		ldr	r7, .L140+12
 392 02ae 0022     		movs	r2, #0
 393 02b0 0392     		str	r2, [sp, #12]
 394 02b2 1A6C     		ldr	r2, [r3, #64]
 395 02b4 42F08052 		orr	r2, r2, #268435456
 396 02b8 1A64     		str	r2, [r3, #64]
 397 02ba 1B6C     		ldr	r3, [r3, #64]
 398 02bc 03F08053 		and	r3, r3, #268435456
 399 02c0 0393     		str	r3, [sp, #12]
 400 02c2 039B     		ldr	r3, [sp, #12]
 401 02c4 3B68     		ldr	r3, [r7]
 402 02c6 43F48073 		orr	r3, r3, #256
ARM GAS  /tmp/ccQwbCpg.s 			page 8


 403 02ca 3B60     		str	r3, [r7]
 404 02cc FFF7FEFF 		bl	HAL_GetTick
 405 02d0 8046     		mov	r8, r0
 406 02d2 0DE0     		b	.L11
 407              	.L141:
 408              		.align	2
 409              	.L140:
 410 02d4 00380240 		.word	1073887232
 411 02d8 E0114742 		.word	1111953888
 412 02dc 68004742 		.word	1111949416
 413 02e0 00700040 		.word	1073770496
 414              	.L13:
 415 02e4 FFF7FEFF 		bl	HAL_GetTick
 416 02e8 C8EB0000 		rsb	r0, r8, r0
 417 02ec 0228     		cmp	r0, #2
 418 02ee D8D8     		bhi	.L18
 419              	.L11:
 420 02f0 3B68     		ldr	r3, [r7]
 421 02f2 D905     		lsls	r1, r3, #23
 422 02f4 F6D5     		bpl	.L13
 423 02f6 BC49     		ldr	r1, .L142
 424 02f8 0B6F     		ldr	r3, [r1, #112]
 425 02fa 13F44072 		ands	r2, r3, #768
 426 02fe 236C     		ldr	r3, [r4, #64]
 427 0300 03F44070 		and	r0, r3, #768
 428 0304 11D0     		beq	.L15
 429 0306 8242     		cmp	r2, r0
 430 0308 0FD0     		beq	.L15
 431 030a 0B6F     		ldr	r3, [r1, #112]
 432 030c B74A     		ldr	r2, .L142+4
 433 030e 23F44073 		bic	r3, r3, #768
 434 0312 0127     		movs	r7, #1
 435 0314 0020     		movs	r0, #0
 436 0316 1760     		str	r7, [r2]
 437 0318 1060     		str	r0, [r2]
 438 031a 0B67     		str	r3, [r1, #112]
 439 031c 0B6F     		ldr	r3, [r1, #112]
 440 031e DA07     		lsls	r2, r3, #31
 441 0320 00F18880 		bmi	.L136
 442              	.L130:
 443 0324 236C     		ldr	r3, [r4, #64]
 444 0326 03F44070 		and	r0, r3, #768
 445              	.L15:
 446 032a B0F5407F 		cmp	r0, #768
 447 032e 00F0DF80 		beq	.L137
 448 0332 AD49     		ldr	r1, .L142
 449 0334 8A68     		ldr	r2, [r1, #8]
 450 0336 22F4F812 		bic	r2, r2, #2031616
 451 033a 8A60     		str	r2, [r1, #8]
 452              	.L21:
 453 033c AA49     		ldr	r1, .L142
 454 033e 0A6F     		ldr	r2, [r1, #112]
 455 0340 C3F30B03 		ubfx	r3, r3, #0, #12
 456 0344 1343     		orrs	r3, r3, r2
 457 0346 0B67     		str	r3, [r1, #112]
 458 0348 A7E6     		b	.L10
 459              	.L58:
ARM GAS  /tmp/ccQwbCpg.s 			page 9


 460 034a 0126     		movs	r6, #1
 461 034c A2E6     		b	.L9
 462              	.L134:
 463 034e A84B     		ldr	r3, .L142+8
 464 0350 A54D     		ldr	r5, .L142
 465 0352 0022     		movs	r2, #0
 466 0354 1A60     		str	r2, [r3]
 467 0356 FFF7FEFF 		bl	HAL_GetTick
 468 035a 0646     		mov	r6, r0
 469 035c 04E0     		b	.L46
 470              	.L47:
 471 035e FFF7FEFF 		bl	HAL_GetTick
 472 0362 801B     		subs	r0, r0, r6
 473 0364 0228     		cmp	r0, #2
 474 0366 9CD8     		bhi	.L18
 475              	.L46:
 476 0368 2B68     		ldr	r3, [r5]
 477 036a 9F00     		lsls	r7, r3, #2
 478 036c F7D4     		bmi	.L47
 479 036e 2168     		ldr	r1, [r4]
 480 0370 4D07     		lsls	r5, r1, #29
 481 0372 5BD4     		bmi	.L138
 482              	.L48:
 483 0374 0807     		lsls	r0, r1, #28
 484 0376 38D5     		bpl	.L50
 485 0378 636B     		ldr	r3, [r4, #52]
 486 037a B3BB     		cbnz	r3, .L50
 487              	.L49:
 488 037c 9A4E     		ldr	r6, .L142
 489 037e 4FF44030 		mov	r0, #196608
 490 0382 D6F88820 		ldr	r2, [r6, #136]
 491              		.syntax unified
 492              	@ 531 "Drivers/CMSIS/Include/cmsis_gcc.h" 1
 493 0386 90FAA0F3 		rbit r3, r0
 494              	@ 0 "" 2
 495              		.thumb
 496              		.syntax unified
 497 038a 47F6C077 		movw	r7, #32704
 498 038e B3FA83F3 		clz	r3, r3
 499              		.syntax unified
 500              	@ 531 "Drivers/CMSIS/Include/cmsis_gcc.h" 1
 501 0392 97FAA7F7 		rbit r7, r7
 502              	@ 0 "" 2
 503              		.thumb
 504              		.syntax unified
 505 0396 B7FA87F7 		clz	r7, r7
 506              		.syntax unified
 507              	@ 531 "Drivers/CMSIS/Include/cmsis_gcc.h" 1
 508 039a 90FAA0F0 		rbit r0, r0
 509              	@ 0 "" 2
 510              		.thumb
 511              		.syntax unified
 512 039e 4FF0706E 		mov	lr, #251658240
 513 03a2 B0FA80F0 		clz	r0, r0
 514              		.syntax unified
 515              	@ 531 "Drivers/CMSIS/Include/cmsis_gcc.h" 1
 516 03a6 9EFAAEFE 		rbit lr, lr
ARM GAS  /tmp/ccQwbCpg.s 			page 10


 517              	@ 0 "" 2
 518              		.thumb
 519              		.syntax unified
 520 03aa 02F44032 		and	r2, r2, #196608
 521 03ae E569     		ldr	r5, [r4, #28]
 522 03b0 22FA03F3 		lsr	r3, r2, r3
 523 03b4 626A     		ldr	r2, [r4, #36]
 524 03b6 0133     		adds	r3, r3, #1
 525 03b8 BEFA8EFE 		clz	lr, lr
 526 03bc BD40     		lsls	r5, r5, r7
 527 03be 23F00043 		bic	r3, r3, #-2147483648
 528 03c2 A769     		ldr	r7, [r4, #24]
 529 03c4 02FA0EF2 		lsl	r2, r2, lr
 530 03c8 2A43     		orrs	r2, r2, r5
 531 03ca 013B     		subs	r3, r3, #1
 532 03cc 1743     		orrs	r7, r7, r2
 533 03ce 8340     		lsls	r3, r3, r0
 534 03d0 3B43     		orrs	r3, r3, r7
 535 03d2 C6F88830 		str	r3, [r6, #136]
 536 03d6 D6F88C30 		ldr	r3, [r6, #140]
 537 03da E26A     		ldr	r2, [r4, #44]
 538 03dc 23F4F853 		bic	r3, r3, #7936
 539 03e0 013A     		subs	r2, r2, #1
 540 03e2 43EA0223 		orr	r3, r3, r2, lsl #8
 541 03e6 C6F88C30 		str	r3, [r6, #140]
 542              	.L50:
 543 03ea CA05     		lsls	r2, r1, #23
 544 03ec 04D5     		bpl	.L51
 545 03ee 636D     		ldr	r3, [r4, #84]
 546 03f0 B3F1006F 		cmp	r3, #134217728
 547 03f4 00F0CC80 		beq	.L139
 548              	.L51:
 549 03f8 7D4B     		ldr	r3, .L142+8
 550 03fa 7B4C     		ldr	r4, .L142
 551 03fc 0122     		movs	r2, #1
 552 03fe 1A60     		str	r2, [r3]
 553 0400 FFF7FEFF 		bl	HAL_GetTick
 554 0404 0546     		mov	r5, r0
 555 0406 05E0     		b	.L52
 556              	.L53:
 557 0408 FFF7FEFF 		bl	HAL_GetTick
 558 040c 401B     		subs	r0, r0, r5
 559 040e 0228     		cmp	r0, #2
 560 0410 3FF647AF 		bhi	.L18
 561              	.L52:
 562 0414 2368     		ldr	r3, [r4]
 563 0416 9B00     		lsls	r3, r3, #2
 564 0418 F6D5     		bpl	.L53
 565 041a 80E6     		b	.L33
 566              	.L35:
 567 041c 8B07     		lsls	r3, r1, #30
 568 041e 7FF5EDAE 		bpl	.L37
 569 0422 E36B     		ldr	r3, [r4, #60]
 570 0424 002B     		cmp	r3, #0
 571 0426 7FF4E9AE 		bne	.L37
 572 042a A1E6     		b	.L36
 573              	.L138:
ARM GAS  /tmp/ccQwbCpg.s 			page 11


 574 042c 236B     		ldr	r3, [r4, #48]
 575 042e 002B     		cmp	r3, #0
 576 0430 A4D0     		beq	.L49
 577 0432 9FE7     		b	.L48
 578              	.L136:
 579 0434 0F46     		mov	r7, r1
 580 0436 FFF7FEFF 		bl	HAL_GetTick
 581 043a 41F28838 		movw	r8, #5000
 582 043e 8146     		mov	r9, r0
 583 0440 06E0     		b	.L17
 584              	.L19:
 585 0442 FFF7FEFF 		bl	HAL_GetTick
 586 0446 C9EB0000 		rsb	r0, r9, r0
 587 044a 4045     		cmp	r0, r8
 588 044c 3FF629AF 		bhi	.L18
 589              	.L17:
 590 0450 3B6F     		ldr	r3, [r7, #112]
 591 0452 9B07     		lsls	r3, r3, #30
 592 0454 F5D5     		bpl	.L19
 593 0456 65E7     		b	.L130
 594              	.L39:
 595 0458 634E     		ldr	r6, .L142
 596 045a 4FF44033 		mov	r3, #196608
 597 045e D6F88420 		ldr	r2, [r6, #132]
 598              		.syntax unified
 599              	@ 531 "Drivers/CMSIS/Include/cmsis_gcc.h" 1
 600 0462 93FAA3FB 		rbit fp, r3
 601              	@ 0 "" 2
 602              		.thumb
 603              		.syntax unified
 604 0466 4FF0E048 		mov	r8, #1879048192
 605 046a BBFA8BFB 		clz	fp, fp
 606 046e D6F884E0 		ldr	lr, [r6, #132]
 607              		.syntax unified
 608              	@ 531 "Drivers/CMSIS/Include/cmsis_gcc.h" 1
 609 0472 98FAA8F9 		rbit r9, r8
 610              	@ 0 "" 2
 611              		.thumb
 612              		.syntax unified
 613 0476 47F6C077 		movw	r7, #32704
 614 047a B9FA89F9 		clz	r9, r9
 615              		.syntax unified
 616              	@ 531 "Drivers/CMSIS/Include/cmsis_gcc.h" 1
 617 047e 97FAA7F7 		rbit r7, r7
 618              	@ 0 "" 2
 619              		.thumb
 620              		.syntax unified
 621 0482 B7FA87FA 		clz	r10, r7
 622              		.syntax unified
 623              	@ 531 "Drivers/CMSIS/Include/cmsis_gcc.h" 1
 624 0486 93FAA3F3 		rbit r3, r3
 625              	@ 0 "" 2
 626              		.thumb
 627              		.syntax unified
 628 048a 4FF07060 		mov	r0, #251658240
 629 048e B3FA83FC 		clz	ip, r3
 630              		.syntax unified
ARM GAS  /tmp/ccQwbCpg.s 			page 12


 631              	@ 531 "Drivers/CMSIS/Include/cmsis_gcc.h" 1
 632 0492 90FAA0F3 		rbit r3, r0
 633              	@ 0 "" 2
 634              		.thumb
 635              		.syntax unified
 636 0496 B3FA83F3 		clz	r3, r3
 637              		.syntax unified
 638              	@ 531 "Drivers/CMSIS/Include/cmsis_gcc.h" 1
 639 049a 98FAA8F8 		rbit r8, r8
 640              	@ 0 "" 2
 641              		.thumb
 642              		.syntax unified
 643 049e 2069     		ldr	r0, [r4, #16]
 644 04a0 A768     		ldr	r7, [r4, #8]
 645 04a2 02F44032 		and	r2, r2, #196608
 646 04a6 22FA0BF2 		lsr	r2, r2, fp
 647 04aa 00FA03F3 		lsl	r3, r0, r3
 648 04ae 0132     		adds	r2, r2, #1
 649 04b0 6068     		ldr	r0, [r4, #4]
 650 04b2 0EF0E04E 		and	lr, lr, #1879048192
 651 04b6 07FA0AF7 		lsl	r7, r7, r10
 652 04ba 22F00042 		bic	r2, r2, #-2147483648
 653 04be 1F43     		orrs	r7, r7, r3
 654 04c0 2EFA09FE 		lsr	lr, lr, r9
 655 04c4 B8FA88F8 		clz	r8, r8
 656 04c8 531E     		subs	r3, r2, #1
 657 04ca 3843     		orrs	r0, r0, r7
 658 04cc 0EFA08F2 		lsl	r2, lr, r8
 659 04d0 0243     		orrs	r2, r2, r0
 660 04d2 03FA0CF3 		lsl	r3, r3, ip
 661 04d6 1343     		orrs	r3, r3, r2
 662 04d8 C6F88430 		str	r3, [r6, #132]
 663 04dc D6F88C30 		ldr	r3, [r6, #140]
 664 04e0 A26A     		ldr	r2, [r4, #40]
 665 04e2 23F01F03 		bic	r3, r3, #31
 666 04e6 013A     		subs	r2, r2, #1
 667 04e8 1343     		orrs	r3, r3, r2
 668 04ea C6F88C30 		str	r3, [r6, #140]
 669 04ee 93E6     		b	.L40
 670              	.L137:
 671 04f0 3D48     		ldr	r0, .L142
 672 04f2 8168     		ldr	r1, [r0, #8]
 673 04f4 23F07042 		bic	r2, r3, #-268435456
 674 04f8 21F4F811 		bic	r1, r1, #2031616
 675 04fc 22F44072 		bic	r2, r2, #768
 676 0500 0A43     		orrs	r2, r2, r1
 677 0502 8260     		str	r2, [r0, #8]
 678 0504 1AE7     		b	.L21
 679              	.L135:
 680 0506 DFF8E080 		ldr	r8, .L142
 681 050a 4FF44033 		mov	r3, #196608
 682 050e D8F88420 		ldr	r2, [r8, #132]
 683              		.syntax unified
 684              	@ 531 "Drivers/CMSIS/Include/cmsis_gcc.h" 1
 685 0512 93FAA3FB 		rbit fp, r3
 686              	@ 0 "" 2
 687              		.thumb
ARM GAS  /tmp/ccQwbCpg.s 			page 13


 688              		.syntax unified
 689 0516 4FF0E04E 		mov	lr, #1879048192
 690 051a BBFA8BFB 		clz	fp, fp
 691 051e D8F88400 		ldr	r0, [r8, #132]
 692              		.syntax unified
 693              	@ 531 "Drivers/CMSIS/Include/cmsis_gcc.h" 1
 694 0522 9EFAAEFA 		rbit r10, lr
 695              	@ 0 "" 2
 696              		.thumb
 697              		.syntax unified
 698 0526 47F6C076 		movw	r6, #32704
 699 052a BAFA8AFA 		clz	r10, r10
 700              		.syntax unified
 701              	@ 531 "Drivers/CMSIS/Include/cmsis_gcc.h" 1
 702 052e 96FAA6F6 		rbit r6, r6
 703              	@ 0 "" 2
 704              		.thumb
 705              		.syntax unified
 706 0532 B6FA86F6 		clz	r6, r6
 707              		.syntax unified
 708              	@ 531 "Drivers/CMSIS/Include/cmsis_gcc.h" 1
 709 0536 93FAA3F3 		rbit r3, r3
 710              	@ 0 "" 2
 711              		.thumb
 712              		.syntax unified
 713 053a 4FF07069 		mov	r9, #251658240
 714 053e B3FA83FC 		clz	ip, r3
 715              		.syntax unified
 716              	@ 531 "Drivers/CMSIS/Include/cmsis_gcc.h" 1
 717 0542 99FAA9F3 		rbit r3, r9
 718              	@ 0 "" 2
 719              		.thumb
 720              		.syntax unified
 721 0546 B3FA83F9 		clz	r9, r3
 722              		.syntax unified
 723              	@ 531 "Drivers/CMSIS/Include/cmsis_gcc.h" 1
 724 054a 9EFAAEFE 		rbit lr, lr
 725              	@ 0 "" 2
 726              		.thumb
 727              		.syntax unified
 728 054e E768     		ldr	r7, [r4, #12]
 729 0550 A368     		ldr	r3, [r4, #8]
 730 0552 7F08     		lsrs	r7, r7, #1
 731 0554 02F44032 		and	r2, r2, #196608
 732 0558 013F     		subs	r7, r7, #1
 733 055a 22FA0BFB 		lsr	fp, r2, fp
 734 055e 03FA06F6 		lsl	r6, r3, r6
 735 0562 6268     		ldr	r2, [r4, #4]
 736 0564 00F0E040 		and	r0, r0, #1879048192
 737 0568 07FA0CF7 		lsl	r7, r7, ip
 738 056c 0BF10103 		add	r3, fp, #1
 739 0570 20FA0AF0 		lsr	r0, r0, r10
 740 0574 BEFA8EFE 		clz	lr, lr
 741 0578 3743     		orrs	r7, r7, r6
 742 057a 5B00     		lsls	r3, r3, #1
 743 057c 00FA0EF0 		lsl	r0, r0, lr
 744 0580 3A43     		orrs	r2, r2, r7
ARM GAS  /tmp/ccQwbCpg.s 			page 14


 745 0582 03FA09F3 		lsl	r3, r3, r9
 746 0586 0243     		orrs	r2, r2, r0
 747 0588 1343     		orrs	r3, r3, r2
 748 058a C8F88430 		str	r3, [r8, #132]
 749 058e 4AE6     		b	.L41
 750              	.L139:
 751 0590 154D     		ldr	r5, .L142
 752 0592 4FF07061 		mov	r1, #251658240
 753 0596 D5F88830 		ldr	r3, [r5, #136]
 754              		.syntax unified
 755              	@ 531 "Drivers/CMSIS/Include/cmsis_gcc.h" 1
 756 059a 91FAA1F7 		rbit r7, r1
 757              	@ 0 "" 2
 758              		.thumb
 759              		.syntax unified
 760 059e 47F6C070 		movw	r0, #32704
 761 05a2 B7FA87F7 		clz	r7, r7
 762              		.syntax unified
 763              	@ 531 "Drivers/CMSIS/Include/cmsis_gcc.h" 1
 764 05a6 90FAA0F0 		rbit r0, r0
 765              	@ 0 "" 2
 766              		.thumb
 767              		.syntax unified
 768 05aa 4FF44032 		mov	r2, #196608
 769 05ae B0FA80F6 		clz	r6, r0
 770              		.syntax unified
 771              	@ 531 "Drivers/CMSIS/Include/cmsis_gcc.h" 1
 772 05b2 92FAA2F2 		rbit r2, r2
 773              	@ 0 "" 2
 774              		.thumb
 775              		.syntax unified
 776 05b6 B2FA82FE 		clz	lr, r2
 777              		.syntax unified
 778              	@ 531 "Drivers/CMSIS/Include/cmsis_gcc.h" 1
 779 05ba 91FAA1F1 		rbit r1, r1
 780              	@ 0 "" 2
 781              		.thumb
 782              		.syntax unified
 783 05be 226A     		ldr	r2, [r4, #32]
 784 05c0 E069     		ldr	r0, [r4, #28]
 785 05c2 A469     		ldr	r4, [r4, #24]
 786 05c4 5208     		lsrs	r2, r2, #1
 787 05c6 013A     		subs	r2, r2, #1
 788 05c8 03F07063 		and	r3, r3, #251658240
 789 05cc 02FA0EF2 		lsl	r2, r2, lr
 790 05d0 B040     		lsls	r0, r0, r6
 791 05d2 FB40     		lsrs	r3, r3, r7
 792 05d4 B1FA81F1 		clz	r1, r1
 793 05d8 0243     		orrs	r2, r2, r0
 794 05da 8B40     		lsls	r3, r3, r1
 795 05dc 2243     		orrs	r2, r2, r4
 796 05de 1343     		orrs	r3, r3, r2
 797 05e0 C5F88830 		str	r3, [r5, #136]
 798 05e4 08E7     		b	.L51
 799              	.L143:
 800 05e6 00BF     		.align	2
 801              	.L142:
ARM GAS  /tmp/ccQwbCpg.s 			page 15


 802 05e8 00380240 		.word	1073887232
 803 05ec 400E4742 		.word	1111952960
 804 05f0 70004742 		.word	1111949424
 806              		.section	.text.HAL_RCCEx_GetPeriphCLKConfig,"ax",%progbits
 807              		.align	2
 808              		.global	HAL_RCCEx_GetPeriphCLKConfig
 809              		.thumb
 810              		.thumb_func
 812              	HAL_RCCEx_GetPeriphCLKConfig:
 813              		@ args = 0, pretend = 0, frame = 0
 814              		@ frame_needed = 0, uses_anonymous_args = 0
 815              		@ link register save eliminated.
 816 0000 40F2FF72 		movw	r2, #2047
 817 0004 604B     		ldr	r3, .L149
 818 0006 0260     		str	r2, [r0]
 819 0008 F0B4     		push	{r4, r5, r6, r7}
 820 000a D3F88420 		ldr	r2, [r3, #132]
 821 000e 3F26     		movs	r6, #63
 822              		.syntax unified
 823              	@ 531 "Drivers/CMSIS/Include/cmsis_gcc.h" 1
 824 0010 96FAA6F1 		rbit r1, r6
 825              	@ 0 "" 2
 826              		.thumb
 827              		.syntax unified
 828 0014 B1FA81F1 		clz	r1, r1
 829 0018 3240     		ands	r2, r2, r6
 830 001a CA40     		lsrs	r2, r2, r1
 831 001c 4260     		str	r2, [r0, #4]
 832 001e D3F88440 		ldr	r4, [r3, #132]
 833 0022 47F6C075 		movw	r5, #32704
 834              		.syntax unified
 835              	@ 531 "Drivers/CMSIS/Include/cmsis_gcc.h" 1
 836 0026 95FAA5F1 		rbit r1, r5
 837              	@ 0 "" 2
 838              		.thumb
 839              		.syntax unified
 840 002a 2A46     		mov	r2, r5
 841 002c B1FA81F1 		clz	r1, r1
 842 0030 2240     		ands	r2, r2, r4
 843 0032 CA40     		lsrs	r2, r2, r1
 844 0034 8260     		str	r2, [r0, #8]
 845 0036 D3F88440 		ldr	r4, [r3, #132]
 846 003a 4FF44032 		mov	r2, #196608
 847              		.syntax unified
 848              	@ 531 "Drivers/CMSIS/Include/cmsis_gcc.h" 1
 849 003e 92FAA2F1 		rbit r1, r2
 850              	@ 0 "" 2
 851              		.thumb
 852              		.syntax unified
 853 0042 B1FA81F7 		clz	r7, r1
 854 0046 04EA0201 		and	r1, r4, r2
 855 004a F940     		lsrs	r1, r1, r7
 856 004c 0131     		adds	r1, r1, #1
 857 004e 4900     		lsls	r1, r1, #1
 858 0050 C160     		str	r1, [r0, #12]
 859 0052 D3F88410 		ldr	r1, [r3, #132]
 860 0056 4FF07064 		mov	r4, #251658240
ARM GAS  /tmp/ccQwbCpg.s 			page 16


 861              		.syntax unified
 862              	@ 531 "Drivers/CMSIS/Include/cmsis_gcc.h" 1
 863 005a 94FAA4F7 		rbit r7, r4
 864              	@ 0 "" 2
 865              		.thumb
 866              		.syntax unified
 867 005e B7FA87F7 		clz	r7, r7
 868 0062 2140     		ands	r1, r1, r4
 869 0064 F940     		lsrs	r1, r1, r7
 870 0066 0161     		str	r1, [r0, #16]
 871 0068 D3F88410 		ldr	r1, [r3, #132]
 872 006c 4FF0E047 		mov	r7, #1879048192
 873              		.syntax unified
 874              	@ 531 "Drivers/CMSIS/Include/cmsis_gcc.h" 1
 875 0070 97FAA7F7 		rbit r7, r7
 876              	@ 0 "" 2
 877              		.thumb
 878              		.syntax unified
 879 0074 B7FA87F7 		clz	r7, r7
 880 0078 01F0E041 		and	r1, r1, #1879048192
 881 007c F940     		lsrs	r1, r1, r7
 882 007e 4161     		str	r1, [r0, #20]
 883 0080 D3F88810 		ldr	r1, [r3, #136]
 884              		.syntax unified
 885              	@ 531 "Drivers/CMSIS/Include/cmsis_gcc.h" 1
 886 0084 96FAA6F6 		rbit r6, r6
 887              	@ 0 "" 2
 888              		.thumb
 889              		.syntax unified
 890 0088 01F03F01 		and	r1, r1, #63
 891 008c B6FA86F6 		clz	r6, r6
 892 0090 21FA06F6 		lsr	r6, r1, r6
 893 0094 8661     		str	r6, [r0, #24]
 894 0096 D3F88860 		ldr	r6, [r3, #136]
 895              		.syntax unified
 896              	@ 531 "Drivers/CMSIS/Include/cmsis_gcc.h" 1
 897 009a 95FAA5F5 		rbit r5, r5
 898              	@ 0 "" 2
 899              		.thumb
 900              		.syntax unified
 901 009e 47F6C071 		movw	r1, #32704
 902 00a2 3140     		ands	r1, r1, r6
 903 00a4 B5FA85F5 		clz	r5, r5
 904 00a8 21FA05F5 		lsr	r5, r1, r5
 905 00ac C561     		str	r5, [r0, #28]
 906 00ae D3F88810 		ldr	r1, [r3, #136]
 907              		.syntax unified
 908              	@ 531 "Drivers/CMSIS/Include/cmsis_gcc.h" 1
 909 00b2 92FAA2F2 		rbit r2, r2
 910              	@ 0 "" 2
 911              		.thumb
 912              		.syntax unified
 913 00b6 B2FA82F5 		clz	r5, r2
 914 00ba 01F44032 		and	r2, r1, #196608
 915 00be EA40     		lsrs	r2, r2, r5
 916 00c0 0132     		adds	r2, r2, #1
 917 00c2 5200     		lsls	r2, r2, #1
ARM GAS  /tmp/ccQwbCpg.s 			page 17


 918 00c4 0262     		str	r2, [r0, #32]
 919 00c6 D3F88820 		ldr	r2, [r3, #136]
 920              		.syntax unified
 921              	@ 531 "Drivers/CMSIS/Include/cmsis_gcc.h" 1
 922 00ca 94FAA4F4 		rbit r4, r4
 923              	@ 0 "" 2
 924              		.thumb
 925              		.syntax unified
 926 00ce 02F07062 		and	r2, r2, #251658240
 927 00d2 B4FA84F4 		clz	r4, r4
 928 00d6 22FA04F4 		lsr	r4, r2, r4
 929 00da 4462     		str	r4, [r0, #36]
 930 00dc D3F88C20 		ldr	r2, [r3, #140]
 931 00e0 1F21     		movs	r1, #31
 932              		.syntax unified
 933              	@ 531 "Drivers/CMSIS/Include/cmsis_gcc.h" 1
 934 00e2 91FAA1F1 		rbit r1, r1
 935              	@ 0 "" 2
 936              		.thumb
 937              		.syntax unified
 938 00e6 B1FA81F1 		clz	r1, r1
 939 00ea 02F01F02 		and	r2, r2, #31
 940 00ee CA40     		lsrs	r2, r2, r1
 941 00f0 8262     		str	r2, [r0, #40]
 942 00f2 D3F88C20 		ldr	r2, [r3, #140]
 943 00f6 4FF4F851 		mov	r1, #7936
 944              		.syntax unified
 945              	@ 531 "Drivers/CMSIS/Include/cmsis_gcc.h" 1
 946 00fa 91FAA1F1 		rbit r1, r1
 947              	@ 0 "" 2
 948              		.thumb
 949              		.syntax unified
 950 00fe B1FA81F1 		clz	r1, r1
 951 0102 02F4F852 		and	r2, r2, #7936
 952 0106 CA40     		lsrs	r2, r2, r1
 953 0108 C262     		str	r2, [r0, #44]
 954 010a D3F88C20 		ldr	r2, [r3, #140]
 955 010e 02F44012 		and	r2, r2, #3145728
 956 0112 0263     		str	r2, [r0, #48]
 957 0114 D3F88C20 		ldr	r2, [r3, #140]
 958 0118 02F44002 		and	r2, r2, #12582912
 959 011c 4263     		str	r2, [r0, #52]
 960 011e D3F88C20 		ldr	r2, [r3, #140]
 961 0122 02F0C062 		and	r2, r2, #100663296
 962 0126 8263     		str	r2, [r0, #56]
 963 0128 D3F88C20 		ldr	r2, [r3, #140]
 964 012c 02F0C052 		and	r2, r2, #402653184
 965 0130 C263     		str	r2, [r0, #60]
 966 0132 9968     		ldr	r1, [r3, #8]
 967 0134 1A6F     		ldr	r2, [r3, #112]
 968 0136 01F4F811 		and	r1, r1, #2031616
 969 013a 02F44072 		and	r2, r2, #768
 970 013e 0A43     		orrs	r2, r2, r1
 971 0140 0264     		str	r2, [r0, #64]
 972 0142 D3F89420 		ldr	r2, [r3, #148]
 973 0146 02F08062 		and	r2, r2, #67108864
 974 014a 8264     		str	r2, [r0, #72]
ARM GAS  /tmp/ccQwbCpg.s 			page 18


 975 014c D3F89420 		ldr	r2, [r3, #148]
 976 0150 02F44002 		and	r2, r2, #12582912
 977 0154 C264     		str	r2, [r0, #76]
 978 0156 D3F89420 		ldr	r2, [r3, #148]
 979 015a 02F00062 		and	r2, r2, #134217728
 980 015e 4265     		str	r2, [r0, #84]
 981 0160 D3F89420 		ldr	r2, [r3, #148]
 982 0164 02F08052 		and	r2, r2, #268435456
 983 0168 4264     		str	r2, [r0, #68]
 984 016a D3F89420 		ldr	r2, [r3, #148]
 985 016e 02F00052 		and	r2, r2, #536870912
 986 0172 0265     		str	r2, [r0, #80]
 987 0174 D3F88C30 		ldr	r3, [r3, #140]
 988 0178 13F08073 		ands	r3, r3, #16777216
 989 017c 18BF     		it	ne
 990 017e 0123     		movne	r3, #1
 991 0180 80F85830 		strb	r3, [r0, #88]
 992 0184 F0BC     		pop	{r4, r5, r6, r7}
 993 0186 7047     		bx	lr
 994              	.L150:
 995              		.align	2
 996              	.L149:
 997 0188 00380240 		.word	1073887232
 999              		.section	.text.HAL_RCCEx_GetPeriphCLKFreq,"ax",%progbits
 1000              		.align	2
 1001              		.global	HAL_RCCEx_GetPeriphCLKFreq
 1002              		.thumb
 1003              		.thumb_func
 1005              	HAL_RCCEx_GetPeriphCLKFreq:
 1006              		@ args = 0, pretend = 0, frame = 0
 1007              		@ frame_needed = 0, uses_anonymous_args = 0
 1008              		@ link register save eliminated.
 1009 0000 0428     		cmp	r0, #4
 1010 0002 03D0     		beq	.L152
 1011 0004 0828     		cmp	r0, #8
 1012 0006 01D0     		beq	.L152
 1013              	.L167:
 1014 0008 0020     		movs	r0, #0
 1015 000a 7047     		bx	lr
 1016              	.L152:
 1017 000c 394A     		ldr	r2, .L185
 1018 000e D2F88C30 		ldr	r3, [r2, #140]
 1019 0012 03F47003 		and	r3, r3, #15728640
 1020 0016 B3F5401F 		cmp	r3, #3145728
 1021 001a 4AD0     		beq	.L154
 1022 001c 28D8     		bhi	.L155
 1023 001e B3F5801F 		cmp	r3, #1048576
 1024 0022 2ED0     		beq	.L156
 1025 0024 B3F5001F 		cmp	r3, #2097152
 1026 0028 45D0     		beq	.L157
 1027 002a 002B     		cmp	r3, #0
 1028 002c ECD1     		bne	.L167
 1029 002e 5368     		ldr	r3, [r2, #4]
 1030 0030 13F4800F 		tst	r3, #4194304
 1031 0034 D2F88830 		ldr	r3, [r2, #136]
 1032 0038 0CBF     		ite	eq
 1033 003a 2F49     		ldreq	r1, .L185+4
ARM GAS  /tmp/ccQwbCpg.s 			page 19


 1034 003c 2F49     		ldrne	r1, .L185+8
 1035 003e 03F03F03 		and	r3, r3, #63
 1036 0042 B1FBF3F2 		udiv	r2, r1, r3
 1037 0046 2B49     		ldr	r1, .L185
 1038 0048 D1F88800 		ldr	r0, [r1, #136]
 1039 004c D1F88830 		ldr	r3, [r1, #136]
 1040 0050 D1F88C10 		ldr	r1, [r1, #140]
 1041 0054 C3F38813 		ubfx	r3, r3, #6, #9
 1042 0058 C1F30421 		ubfx	r1, r1, #8, #5
 1043              	.L184:
 1044 005c C0F30360 		ubfx	r0, r0, #24, #4
 1045 0060 02FB03F3 		mul	r3, r2, r3
 1046 0064 4A1C     		adds	r2, r1, #1
 1047 0066 B3FBF0F3 		udiv	r3, r3, r0
 1048 006a B3FBF2F0 		udiv	r0, r3, r2
 1049 006e 7047     		bx	lr
 1050              	.L155:
 1051 0070 B3F5000F 		cmp	r3, #8388608
 1052 0074 1FD0     		beq	.L157
 1053 0076 B3F5400F 		cmp	r3, #12582912
 1054 007a 33D0     		beq	.L159
 1055 007c B3F5800F 		cmp	r3, #4194304
 1056 0080 C2D1     		bne	.L167
 1057              	.L156:
 1058 0082 1C4B     		ldr	r3, .L185
 1059 0084 5A68     		ldr	r2, [r3, #4]
 1060 0086 D3F88430 		ldr	r3, [r3, #132]
 1061 008a 5102     		lsls	r1, r2, #9
 1062 008c 54BF     		ite	pl
 1063 008e 1A49     		ldrpl	r1, .L185+4
 1064 0090 1A49     		ldrmi	r1, .L185+8
 1065 0092 03F03F03 		and	r3, r3, #63
 1066 0096 B1FBF3F2 		udiv	r2, r1, r3
 1067 009a 1649     		ldr	r1, .L185
 1068 009c D1F88400 		ldr	r0, [r1, #132]
 1069 00a0 D1F88430 		ldr	r3, [r1, #132]
 1070 00a4 D1F88C10 		ldr	r1, [r1, #140]
 1071 00a8 C3F38813 		ubfx	r3, r3, #6, #9
 1072 00ac 01F01F01 		and	r1, r1, #31
 1073 00b0 D4E7     		b	.L184
 1074              	.L154:
 1075 00b2 1348     		ldr	r0, .L185+12
 1076 00b4 7047     		bx	lr
 1077              	.L157:
 1078 00b6 0F4B     		ldr	r3, .L185
 1079 00b8 5A68     		ldr	r2, [r3, #4]
 1080 00ba 5B68     		ldr	r3, [r3, #4]
 1081 00bc 5202     		lsls	r2, r2, #9
 1082 00be 54BF     		ite	pl
 1083 00c0 0D49     		ldrpl	r1, .L185+4
 1084 00c2 0E49     		ldrmi	r1, .L185+8
 1085 00c4 03F03F03 		and	r3, r3, #63
 1086 00c8 B1FBF3F2 		udiv	r2, r1, r3
 1087 00cc 094B     		ldr	r3, .L185
 1088 00ce 5868     		ldr	r0, [r3, #4]
 1089 00d0 5B68     		ldr	r3, [r3, #4]
 1090 00d2 C3F38813 		ubfx	r3, r3, #6, #9
ARM GAS  /tmp/ccQwbCpg.s 			page 20


 1091 00d6 02FB03F3 		mul	r3, r2, r3
 1092 00da C0F30270 		ubfx	r0, r0, #28, #3
 1093 00de B3FBF0F0 		udiv	r0, r3, r0
 1094 00e2 7047     		bx	lr
 1095              	.L159:
 1096 00e4 5268     		ldr	r2, [r2, #4]
 1097 00e6 044B     		ldr	r3, .L185+4
 1098 00e8 0448     		ldr	r0, .L185+8
 1099 00ea 12F4800F 		tst	r2, #4194304
 1100 00ee 08BF     		it	eq
 1101 00f0 1846     		moveq	r0, r3
 1102 00f2 7047     		bx	lr
 1103              	.L186:
 1104              		.align	2
 1105              	.L185:
 1106 00f4 00380240 		.word	1073887232
 1107 00f8 0024F400 		.word	16000000
 1108 00fc 00127A00 		.word	8000000
 1109 0100 0080BB00 		.word	12288000
 1111              		.section	.text.HAL_RCC_OscConfig,"ax",%progbits
 1112              		.align	2
 1113              		.global	HAL_RCC_OscConfig
 1114              		.thumb
 1115              		.thumb_func
 1117              	HAL_RCC_OscConfig:
 1118              		@ args = 0, pretend = 0, frame = 8
 1119              		@ frame_needed = 0, uses_anonymous_args = 0
 1120 0000 2DE9F041 		push	{r4, r5, r6, r7, r8, lr}
 1121 0004 0368     		ldr	r3, [r0]
 1122 0006 DA07     		lsls	r2, r3, #31
 1123 0008 82B0     		sub	sp, sp, #8
 1124 000a 0446     		mov	r4, r0
 1125 000c 36D5     		bpl	.L188
 1126 000e AA49     		ldr	r1, .L287
 1127 0010 8A68     		ldr	r2, [r1, #8]
 1128 0012 02F00C02 		and	r2, r2, #12
 1129 0016 042A     		cmp	r2, #4
 1130 0018 00F0A580 		beq	.L189
 1131 001c 8A68     		ldr	r2, [r1, #8]
 1132 001e 02F00C02 		and	r2, r2, #12
 1133 0022 082A     		cmp	r2, #8
 1134 0024 00F09B80 		beq	.L277
 1135              	.L190:
 1136 0028 A349     		ldr	r1, .L287
 1137 002a 8A68     		ldr	r2, [r1, #8]
 1138 002c 02F00C02 		and	r2, r2, #12
 1139 0030 0C2A     		cmp	r2, #12
 1140 0032 00F02681 		beq	.L278
 1141              	.L191:
 1142 0036 6368     		ldr	r3, [r4, #4]
 1143 0038 B3F5803F 		cmp	r3, #65536
 1144 003c 00F00A81 		beq	.L279
 1145 0040 B3F5A02F 		cmp	r3, #327680
 1146 0044 00F08B81 		beq	.L280
 1147 0048 9B4D     		ldr	r5, .L287
 1148 004a 2A68     		ldr	r2, [r5]
 1149 004c 22F48032 		bic	r2, r2, #65536
ARM GAS  /tmp/ccQwbCpg.s 			page 21


 1150 0050 2A60     		str	r2, [r5]
 1151 0052 2A68     		ldr	r2, [r5]
 1152 0054 22F48022 		bic	r2, r2, #262144
 1153 0058 2A60     		str	r2, [r5]
 1154 005a 002B     		cmp	r3, #0
 1155 005c 40F0FF80 		bne	.L194
 1156 0060 FFF7FEFF 		bl	HAL_GetTick
 1157 0064 0646     		mov	r6, r0
 1158 0066 05E0     		b	.L199
 1159              	.L201:
 1160 0068 FFF7FEFF 		bl	HAL_GetTick
 1161 006c 801B     		subs	r0, r0, r6
 1162 006e 6428     		cmp	r0, #100
 1163 0070 00F20381 		bhi	.L200
 1164              	.L199:
 1165 0074 2B68     		ldr	r3, [r5]
 1166 0076 9903     		lsls	r1, r3, #14
 1167 0078 F6D4     		bmi	.L201
 1168              	.L275:
 1169 007a 2368     		ldr	r3, [r4]
 1170              	.L188:
 1171 007c 9A07     		lsls	r2, r3, #30
 1172 007e 34D5     		bpl	.L202
 1173 0080 8D4A     		ldr	r2, .L287
 1174 0082 9168     		ldr	r1, [r2, #8]
 1175 0084 11F00C0F 		tst	r1, #12
 1176 0088 78D0     		beq	.L203
 1177 008a 9168     		ldr	r1, [r2, #8]
 1178 008c 01F00C01 		and	r1, r1, #12
 1179 0090 0829     		cmp	r1, #8
 1180 0092 70D0     		beq	.L281
 1181              	.L204:
 1182 0094 8849     		ldr	r1, .L287
 1183 0096 8A68     		ldr	r2, [r1, #8]
 1184 0098 02F00C02 		and	r2, r2, #12
 1185 009c 0C2A     		cmp	r2, #12
 1186 009e 00F08281 		beq	.L282
 1187              	.L205:
 1188 00a2 E368     		ldr	r3, [r4, #12]
 1189 00a4 002B     		cmp	r3, #0
 1190 00a6 00F0F180 		beq	.L208
 1191 00aa 844B     		ldr	r3, .L287+4
 1192 00ac 824D     		ldr	r5, .L287
 1193 00ae 0122     		movs	r2, #1
 1194 00b0 1A60     		str	r2, [r3]
 1195 00b2 FFF7FEFF 		bl	HAL_GetTick
 1196 00b6 0646     		mov	r6, r0
 1197 00b8 05E0     		b	.L209
 1198              	.L210:
 1199 00ba FFF7FEFF 		bl	HAL_GetTick
 1200 00be 801B     		subs	r0, r0, r6
 1201 00c0 0228     		cmp	r0, #2
 1202 00c2 00F2DA80 		bhi	.L200
 1203              	.L209:
 1204 00c6 2B68     		ldr	r3, [r5]
 1205 00c8 7B4A     		ldr	r2, .L287
 1206 00ca 9807     		lsls	r0, r3, #30
ARM GAS  /tmp/ccQwbCpg.s 			page 22


 1207 00cc F5D5     		bpl	.L210
 1208 00ce 1168     		ldr	r1, [r2]
 1209 00d0 F823     		movs	r3, #248
 1210              		.syntax unified
 1211              	@ 531 "Drivers/CMSIS/Include/cmsis_gcc.h" 1
 1212 00d2 93FAA3F3 		rbit r3, r3
 1213              	@ 0 "" 2
 1214              		.thumb
 1215              		.syntax unified
 1216 00d6 2069     		ldr	r0, [r4, #16]
 1217 00d8 B3FA83F3 		clz	r3, r3
 1218 00dc 21F0F801 		bic	r1, r1, #248
 1219 00e0 00FA03F3 		lsl	r3, r0, r3
 1220 00e4 0B43     		orrs	r3, r3, r1
 1221 00e6 1360     		str	r3, [r2]
 1222 00e8 2368     		ldr	r3, [r4]
 1223              	.L202:
 1224 00ea 1A07     		lsls	r2, r3, #28
 1225 00ec 14D5     		bpl	.L213
 1226              	.L286:
 1227 00ee 6369     		ldr	r3, [r4, #20]
 1228 00f0 002B     		cmp	r3, #0
 1229 00f2 4ED0     		beq	.L214
 1230 00f4 724B     		ldr	r3, .L287+8
 1231 00f6 704D     		ldr	r5, .L287
 1232 00f8 0122     		movs	r2, #1
 1233 00fa 1A60     		str	r2, [r3]
 1234 00fc FFF7FEFF 		bl	HAL_GetTick
 1235 0100 0646     		mov	r6, r0
 1236 0102 05E0     		b	.L215
 1237              	.L216:
 1238 0104 FFF7FEFF 		bl	HAL_GetTick
 1239 0108 801B     		subs	r0, r0, r6
 1240 010a 0228     		cmp	r0, #2
 1241 010c 00F2B580 		bhi	.L200
 1242              	.L215:
 1243 0110 6B6F     		ldr	r3, [r5, #116]
 1244 0112 9F07     		lsls	r7, r3, #30
 1245 0114 F6D5     		bpl	.L216
 1246              	.L276:
 1247 0116 2368     		ldr	r3, [r4]
 1248              	.L213:
 1249 0118 5907     		lsls	r1, r3, #29
 1250 011a 4AD4     		bmi	.L219
 1251              	.L229:
 1252 011c A269     		ldr	r2, [r4, #24]
 1253 011e D2B1     		cbz	r2, .L221
 1254 0120 654B     		ldr	r3, .L287
 1255 0122 9968     		ldr	r1, [r3, #8]
 1256 0124 01F00C01 		and	r1, r1, #12
 1257 0128 0829     		cmp	r1, #8
 1258 012a 2ED0     		beq	.L207
 1259 012c 022A     		cmp	r2, #2
 1260 012e 654A     		ldr	r2, .L287+12
 1261 0130 4FF00001 		mov	r1, #0
 1262 0134 1160     		str	r1, [r2]
 1263 0136 00F0BA80 		beq	.L283
ARM GAS  /tmp/ccQwbCpg.s 			page 23


 1264 013a 1C46     		mov	r4, r3
 1265 013c FFF7FEFF 		bl	HAL_GetTick
 1266 0140 0546     		mov	r5, r0
 1267 0142 05E0     		b	.L237
 1268              	.L238:
 1269 0144 FFF7FEFF 		bl	HAL_GetTick
 1270 0148 401B     		subs	r0, r0, r5
 1271 014a 0228     		cmp	r0, #2
 1272 014c 00F29580 		bhi	.L200
 1273              	.L237:
 1274 0150 2368     		ldr	r3, [r4]
 1275 0152 9B01     		lsls	r3, r3, #6
 1276 0154 F6D4     		bmi	.L238
 1277              	.L221:
 1278 0156 0020     		movs	r0, #0
 1279 0158 02B0     		add	sp, sp, #8
 1280              		@ sp needed
 1281 015a BDE8F081 		pop	{r4, r5, r6, r7, r8, pc}
 1282              	.L277:
 1283 015e 4A68     		ldr	r2, [r1, #4]
 1284 0160 5702     		lsls	r7, r2, #9
 1285 0162 7FF561AF 		bpl	.L190
 1286              	.L189:
 1287 0166 544A     		ldr	r2, .L287
 1288 0168 1268     		ldr	r2, [r2]
 1289 016a 9503     		lsls	r5, r2, #14
 1290 016c 86D5     		bpl	.L188
 1291 016e 6268     		ldr	r2, [r4, #4]
 1292 0170 002A     		cmp	r2, #0
 1293 0172 83D1     		bne	.L188
 1294 0174 09E0     		b	.L207
 1295              	.L281:
 1296 0176 5268     		ldr	r2, [r2, #4]
 1297 0178 5702     		lsls	r7, r2, #9
 1298 017a 8BD4     		bmi	.L204
 1299              	.L203:
 1300 017c 4E4A     		ldr	r2, .L287
 1301 017e 1268     		ldr	r2, [r2]
 1302 0180 9507     		lsls	r5, r2, #30
 1303 0182 55D5     		bpl	.L206
 1304 0184 E268     		ldr	r2, [r4, #12]
 1305 0186 012A     		cmp	r2, #1
 1306 0188 52D0     		beq	.L206
 1307              	.L207:
 1308 018a 0120     		movs	r0, #1
 1309 018c 02B0     		add	sp, sp, #8
 1310              		@ sp needed
 1311 018e BDE8F081 		pop	{r4, r5, r6, r7, r8, pc}
 1312              	.L214:
 1313 0192 4B4A     		ldr	r2, .L287+8
 1314 0194 484D     		ldr	r5, .L287
 1315 0196 1360     		str	r3, [r2]
 1316 0198 FFF7FEFF 		bl	HAL_GetTick
 1317 019c 0646     		mov	r6, r0
 1318 019e 04E0     		b	.L217
 1319              	.L218:
 1320 01a0 FFF7FEFF 		bl	HAL_GetTick
ARM GAS  /tmp/ccQwbCpg.s 			page 24


 1321 01a4 801B     		subs	r0, r0, r6
 1322 01a6 0228     		cmp	r0, #2
 1323 01a8 67D8     		bhi	.L200
 1324              	.L217:
 1325 01aa 6B6F     		ldr	r3, [r5, #116]
 1326 01ac 9807     		lsls	r0, r3, #30
 1327 01ae F7D4     		bmi	.L218
 1328 01b0 B1E7     		b	.L276
 1329              	.L219:
 1330 01b2 414B     		ldr	r3, .L287
 1331 01b4 444D     		ldr	r5, .L287+16
 1332 01b6 0022     		movs	r2, #0
 1333 01b8 0192     		str	r2, [sp, #4]
 1334 01ba 1A6C     		ldr	r2, [r3, #64]
 1335 01bc 42F08052 		orr	r2, r2, #268435456
 1336 01c0 1A64     		str	r2, [r3, #64]
 1337 01c2 1B6C     		ldr	r3, [r3, #64]
 1338 01c4 03F08053 		and	r3, r3, #268435456
 1339 01c8 0193     		str	r3, [sp, #4]
 1340 01ca 019B     		ldr	r3, [sp, #4]
 1341 01cc 2B68     		ldr	r3, [r5]
 1342 01ce 43F48073 		orr	r3, r3, #256
 1343 01d2 2B60     		str	r3, [r5]
 1344 01d4 FFF7FEFF 		bl	HAL_GetTick
 1345 01d8 0646     		mov	r6, r0
 1346 01da 04E0     		b	.L222
 1347              	.L223:
 1348 01dc FFF7FEFF 		bl	HAL_GetTick
 1349 01e0 801B     		subs	r0, r0, r6
 1350 01e2 0228     		cmp	r0, #2
 1351 01e4 49D8     		bhi	.L200
 1352              	.L222:
 1353 01e6 2B68     		ldr	r3, [r5]
 1354 01e8 DA05     		lsls	r2, r3, #23
 1355 01ea F7D5     		bpl	.L223
 1356 01ec A368     		ldr	r3, [r4, #8]
 1357 01ee 012B     		cmp	r3, #1
 1358 01f0 00F0DE80 		beq	.L284
 1359 01f4 052B     		cmp	r3, #5
 1360 01f6 00F0BC80 		beq	.L285
 1361 01fa 2F4D     		ldr	r5, .L287
 1362 01fc 2A6F     		ldr	r2, [r5, #112]
 1363 01fe 22F00102 		bic	r2, r2, #1
 1364 0202 2A67     		str	r2, [r5, #112]
 1365 0204 2A6F     		ldr	r2, [r5, #112]
 1366 0206 22F00402 		bic	r2, r2, #4
 1367 020a 2A67     		str	r2, [r5, #112]
 1368 020c 002B     		cmp	r3, #0
 1369 020e 40F0B980 		bne	.L225
 1370 0212 FFF7FEFF 		bl	HAL_GetTick
 1371 0216 41F28836 		movw	r6, #5000
 1372 021a 0746     		mov	r7, r0
 1373 021c 04E0     		b	.L230
 1374              	.L231:
 1375 021e FFF7FEFF 		bl	HAL_GetTick
 1376 0222 C01B     		subs	r0, r0, r7
 1377 0224 B042     		cmp	r0, r6
ARM GAS  /tmp/ccQwbCpg.s 			page 25


 1378 0226 28D8     		bhi	.L200
 1379              	.L230:
 1380 0228 2B6F     		ldr	r3, [r5, #112]
 1381 022a 9807     		lsls	r0, r3, #30
 1382 022c F7D4     		bmi	.L231
 1383 022e 75E7     		b	.L229
 1384              	.L206:
 1385 0230 214D     		ldr	r5, .L287
 1386 0232 F822     		movs	r2, #248
 1387 0234 2968     		ldr	r1, [r5]
 1388              		.syntax unified
 1389              	@ 531 "Drivers/CMSIS/Include/cmsis_gcc.h" 1
 1390 0236 92FAA2F2 		rbit r2, r2
 1391              	@ 0 "" 2
 1392              		.thumb
 1393              		.syntax unified
 1394 023a 2069     		ldr	r0, [r4, #16]
 1395 023c B2FA82F2 		clz	r2, r2
 1396 0240 21F0F801 		bic	r1, r1, #248
 1397 0244 00FA02F2 		lsl	r2, r0, r2
 1398 0248 0A43     		orrs	r2, r2, r1
 1399 024a 2A60     		str	r2, [r5]
 1400 024c 1A07     		lsls	r2, r3, #28
 1401 024e 7FF563AF 		bpl	.L213
 1402 0252 4CE7     		b	.L286
 1403              	.L279:
 1404 0254 184A     		ldr	r2, .L287
 1405 0256 1368     		ldr	r3, [r2]
 1406 0258 43F48033 		orr	r3, r3, #65536
 1407 025c 1360     		str	r3, [r2]
 1408              	.L194:
 1409 025e FFF7FEFF 		bl	HAL_GetTick
 1410 0262 154D     		ldr	r5, .L287
 1411 0264 0646     		mov	r6, r0
 1412 0266 04E0     		b	.L197
 1413              	.L198:
 1414 0268 FFF7FEFF 		bl	HAL_GetTick
 1415 026c 801B     		subs	r0, r0, r6
 1416 026e 6428     		cmp	r0, #100
 1417 0270 03D8     		bhi	.L200
 1418              	.L197:
 1419 0272 2B68     		ldr	r3, [r5]
 1420 0274 9803     		lsls	r0, r3, #14
 1421 0276 F7D5     		bpl	.L198
 1422 0278 FFE6     		b	.L275
 1423              	.L200:
 1424 027a 0320     		movs	r0, #3
 1425 027c 02B0     		add	sp, sp, #8
 1426              		@ sp needed
 1427 027e BDE8F081 		pop	{r4, r5, r6, r7, r8, pc}
 1428              	.L278:
 1429 0282 4A68     		ldr	r2, [r1, #4]
 1430 0284 5602     		lsls	r6, r2, #9
 1431 0286 7FF5D6AE 		bpl	.L191
 1432 028a 6CE7     		b	.L189
 1433              	.L208:
 1434 028c 0B4A     		ldr	r2, .L287+4
ARM GAS  /tmp/ccQwbCpg.s 			page 26


 1435 028e 0A4D     		ldr	r5, .L287
 1436 0290 1360     		str	r3, [r2]
 1437 0292 FFF7FEFF 		bl	HAL_GetTick
 1438 0296 0646     		mov	r6, r0
 1439 0298 04E0     		b	.L211
 1440              	.L212:
 1441 029a FFF7FEFF 		bl	HAL_GetTick
 1442 029e 801B     		subs	r0, r0, r6
 1443 02a0 0228     		cmp	r0, #2
 1444 02a2 EAD8     		bhi	.L200
 1445              	.L211:
 1446 02a4 2B68     		ldr	r3, [r5]
 1447 02a6 9907     		lsls	r1, r3, #30
 1448 02a8 F7D4     		bmi	.L212
 1449 02aa 2368     		ldr	r3, [r4]
 1450 02ac 1DE7     		b	.L202
 1451              	.L283:
 1452 02ae 1D46     		mov	r5, r3
 1453 02b0 FFF7FEFF 		bl	HAL_GetTick
 1454 02b4 0646     		mov	r6, r0
 1455 02b6 0EE0     		b	.L233
 1456              	.L288:
 1457              		.align	2
 1458              	.L287:
 1459 02b8 00380240 		.word	1073887232
 1460 02bc 00004742 		.word	1111949312
 1461 02c0 800E4742 		.word	1111953024
 1462 02c4 60004742 		.word	1111949408
 1463 02c8 00700040 		.word	1073770496
 1464              	.L234:
 1465 02cc FFF7FEFF 		bl	HAL_GetTick
 1466 02d0 801B     		subs	r0, r0, r6
 1467 02d2 0228     		cmp	r0, #2
 1468 02d4 D1D8     		bhi	.L200
 1469              	.L233:
 1470 02d6 2B68     		ldr	r3, [r5]
 1471 02d8 384A     		ldr	r2, .L289
 1472 02da 9901     		lsls	r1, r3, #6
 1473 02dc F6D4     		bmi	.L234
 1474 02de 47F6C073 		movw	r3, #32704
 1475              		.syntax unified
 1476              	@ 531 "Drivers/CMSIS/Include/cmsis_gcc.h" 1
 1477 02e2 93FAA3F3 		rbit r3, r3
 1478              	@ 0 "" 2
 1479              		.thumb
 1480              		.syntax unified
 1481 02e6 4FF4403C 		mov	ip, #196608
 1482 02ea B3FA83F8 		clz	r8, r3
 1483              		.syntax unified
 1484              	@ 531 "Drivers/CMSIS/Include/cmsis_gcc.h" 1
 1485 02ee 9CFAACF3 		rbit r3, ip
 1486              	@ 0 "" 2
 1487              		.thumb
 1488              		.syntax unified
 1489 02f2 4FF0706E 		mov	lr, #251658240
 1490 02f6 B3FA83FC 		clz	ip, r3
 1491              		.syntax unified
ARM GAS  /tmp/ccQwbCpg.s 			page 27


 1492              	@ 531 "Drivers/CMSIS/Include/cmsis_gcc.h" 1
 1493 02fa 9EFAAEFE 		rbit lr, lr
 1494              	@ 0 "" 2
 1495              		.thumb
 1496              		.syntax unified
 1497 02fe 4FF0E046 		mov	r6, #1879048192
 1498 0302 BEFA8EFE 		clz	lr, lr
 1499              		.syntax unified
 1500              	@ 531 "Drivers/CMSIS/Include/cmsis_gcc.h" 1
 1501 0306 96FAA6F6 		rbit r6, r6
 1502              	@ 0 "" 2
 1503              		.thumb
 1504              		.syntax unified
 1505 030a A36A     		ldr	r3, [r4, #40]
 1506 030c 606A     		ldr	r0, [r4, #36]
 1507 030e 256A     		ldr	r5, [r4, #32]
 1508 0310 E769     		ldr	r7, [r4, #28]
 1509 0312 5908     		lsrs	r1, r3, #1
 1510 0314 2F43     		orrs	r7, r7, r5
 1511 0316 00FA08F3 		lsl	r3, r0, r8
 1512 031a E56A     		ldr	r5, [r4, #44]
 1513 031c 206B     		ldr	r0, [r4, #48]
 1514 031e 0139     		subs	r1, r1, #1
 1515 0320 47EA0304 		orr	r4, r7, r3
 1516 0324 01FA0CF3 		lsl	r3, r1, ip
 1517 0328 2343     		orrs	r3, r3, r4
 1518 032a B6FA86F1 		clz	r1, r6
 1519 032e 05FA0EF4 		lsl	r4, r5, lr
 1520 0332 00FA01F1 		lsl	r1, r0, r1
 1521 0336 2343     		orrs	r3, r3, r4
 1522 0338 2148     		ldr	r0, .L289+4
 1523 033a 0B43     		orrs	r3, r3, r1
 1524 033c 0121     		movs	r1, #1
 1525 033e 5360     		str	r3, [r2, #4]
 1526 0340 0160     		str	r1, [r0]
 1527 0342 1446     		mov	r4, r2
 1528 0344 FFF7FEFF 		bl	HAL_GetTick
 1529 0348 0546     		mov	r5, r0
 1530 034a 04E0     		b	.L235
 1531              	.L236:
 1532 034c FFF7FEFF 		bl	HAL_GetTick
 1533 0350 401B     		subs	r0, r0, r5
 1534 0352 0228     		cmp	r0, #2
 1535 0354 91D8     		bhi	.L200
 1536              	.L235:
 1537 0356 2368     		ldr	r3, [r4]
 1538 0358 9A01     		lsls	r2, r3, #6
 1539 035a F7D5     		bpl	.L236
 1540 035c FBE6     		b	.L221
 1541              	.L280:
 1542 035e 174B     		ldr	r3, .L289
 1543 0360 1A68     		ldr	r2, [r3]
 1544 0362 42F48022 		orr	r2, r2, #262144
 1545 0366 1A60     		str	r2, [r3]
 1546 0368 1A68     		ldr	r2, [r3]
 1547 036a 42F48032 		orr	r2, r2, #65536
 1548 036e 1A60     		str	r2, [r3]
ARM GAS  /tmp/ccQwbCpg.s 			page 28


 1549 0370 75E7     		b	.L194
 1550              	.L285:
 1551 0372 124B     		ldr	r3, .L289
 1552 0374 1A6F     		ldr	r2, [r3, #112]
 1553 0376 42F00402 		orr	r2, r2, #4
 1554 037a 1A67     		str	r2, [r3, #112]
 1555 037c 1A6F     		ldr	r2, [r3, #112]
 1556 037e 42F00102 		orr	r2, r2, #1
 1557 0382 1A67     		str	r2, [r3, #112]
 1558              	.L225:
 1559 0384 FFF7FEFF 		bl	HAL_GetTick
 1560 0388 0C4D     		ldr	r5, .L289
 1561 038a 0746     		mov	r7, r0
 1562 038c 41F28836 		movw	r6, #5000
 1563 0390 05E0     		b	.L239
 1564              	.L228:
 1565 0392 FFF7FEFF 		bl	HAL_GetTick
 1566 0396 C01B     		subs	r0, r0, r7
 1567 0398 B042     		cmp	r0, r6
 1568 039a 3FF66EAF 		bhi	.L200
 1569              	.L239:
 1570 039e 2B6F     		ldr	r3, [r5, #112]
 1571 03a0 9B07     		lsls	r3, r3, #30
 1572 03a2 F6D5     		bpl	.L228
 1573 03a4 BAE6     		b	.L229
 1574              	.L282:
 1575 03a6 4A68     		ldr	r2, [r1, #4]
 1576 03a8 5602     		lsls	r6, r2, #9
 1577 03aa 3FF57AAE 		bmi	.L205
 1578 03ae E5E6     		b	.L203
 1579              	.L284:
 1580 03b0 024A     		ldr	r2, .L289
 1581 03b2 136F     		ldr	r3, [r2, #112]
 1582 03b4 43F00103 		orr	r3, r3, #1
 1583 03b8 1367     		str	r3, [r2, #112]
 1584 03ba E3E7     		b	.L225
 1585              	.L290:
 1586              		.align	2
 1587              	.L289:
 1588 03bc 00380240 		.word	1073887232
 1589 03c0 60004742 		.word	1111949408
 1591              		.section	.text.HAL_RCC_GetOscConfig,"ax",%progbits
 1592              		.align	2
 1593              		.global	HAL_RCC_GetOscConfig
 1594              		.thumb
 1595              		.thumb_func
 1597              	HAL_RCC_GetOscConfig:
 1598              		@ args = 0, pretend = 0, frame = 0
 1599              		@ frame_needed = 0, uses_anonymous_args = 0
 1600              		@ link register save eliminated.
 1601 0000 0F22     		movs	r2, #15
 1602 0002 3D4B     		ldr	r3, .L305
 1603 0004 0260     		str	r2, [r0]
 1604 0006 1A68     		ldr	r2, [r3]
 1605 0008 5103     		lsls	r1, r2, #13
 1606 000a 10B4     		push	{r4}
 1607 000c 64D5     		bpl	.L292
ARM GAS  /tmp/ccQwbCpg.s 			page 29


 1608 000e 4FF4A023 		mov	r3, #327680
 1609 0012 4360     		str	r3, [r0, #4]
 1610              	.L293:
 1611 0014 384B     		ldr	r3, .L305
 1612 0016 3849     		ldr	r1, .L305
 1613 0018 1B68     		ldr	r3, [r3]
 1614 001a 13F00103 		ands	r3, r3, #1
 1615 001e 18BF     		it	ne
 1616 0020 0123     		movne	r3, #1
 1617 0022 C360     		str	r3, [r0, #12]
 1618 0024 F822     		movs	r2, #248
 1619 0026 0B68     		ldr	r3, [r1]
 1620              		.syntax unified
 1621              	@ 531 "Drivers/CMSIS/Include/cmsis_gcc.h" 1
 1622 0028 92FAA2F2 		rbit r2, r2
 1623              	@ 0 "" 2
 1624              		.thumb
 1625              		.syntax unified
 1626 002c B2FA82F2 		clz	r2, r2
 1627 0030 03F0F803 		and	r3, r3, #248
 1628 0034 D340     		lsrs	r3, r3, r2
 1629 0036 0361     		str	r3, [r0, #16]
 1630 0038 0B6F     		ldr	r3, [r1, #112]
 1631 003a 5A07     		lsls	r2, r3, #29
 1632 003c 54D5     		bpl	.L297
 1633 003e 0523     		movs	r3, #5
 1634 0040 8360     		str	r3, [r0, #8]
 1635              	.L298:
 1636 0042 2D4B     		ldr	r3, .L305
 1637 0044 2C49     		ldr	r1, .L305
 1638 0046 5B6F     		ldr	r3, [r3, #116]
 1639 0048 13F00103 		ands	r3, r3, #1
 1640 004c 18BF     		it	ne
 1641 004e 0123     		movne	r3, #1
 1642 0050 4361     		str	r3, [r0, #20]
 1643 0052 294B     		ldr	r3, .L305
 1644 0054 1B68     		ldr	r3, [r3]
 1645 0056 DB01     		lsls	r3, r3, #7
 1646 0058 4CBF     		ite	mi
 1647 005a 0223     		movmi	r3, #2
 1648 005c 0123     		movpl	r3, #1
 1649 005e 8361     		str	r3, [r0, #24]
 1650 0060 4B68     		ldr	r3, [r1, #4]
 1651 0062 03F48003 		and	r3, r3, #4194304
 1652 0066 C361     		str	r3, [r0, #28]
 1653 0068 4B68     		ldr	r3, [r1, #4]
 1654 006a 03F03F03 		and	r3, r3, #63
 1655 006e 0362     		str	r3, [r0, #32]
 1656 0070 4C68     		ldr	r4, [r1, #4]
 1657 0072 47F6C072 		movw	r2, #32704
 1658              		.syntax unified
 1659              	@ 531 "Drivers/CMSIS/Include/cmsis_gcc.h" 1
 1660 0076 92FAA2F2 		rbit r2, r2
 1661              	@ 0 "" 2
 1662              		.thumb
 1663              		.syntax unified
 1664 007a 47F6C073 		movw	r3, #32704
ARM GAS  /tmp/ccQwbCpg.s 			page 30


 1665 007e B2FA82F2 		clz	r2, r2
 1666 0082 2340     		ands	r3, r3, r4
 1667 0084 D340     		lsrs	r3, r3, r2
 1668 0086 4362     		str	r3, [r0, #36]
 1669 0088 4A68     		ldr	r2, [r1, #4]
 1670 008a 4FF44033 		mov	r3, #196608
 1671              		.syntax unified
 1672              	@ 531 "Drivers/CMSIS/Include/cmsis_gcc.h" 1
 1673 008e 93FAA3F3 		rbit r3, r3
 1674              	@ 0 "" 2
 1675              		.thumb
 1676              		.syntax unified
 1677 0092 02F44032 		and	r2, r2, #196608
 1678 0096 02F58032 		add	r2, r2, #65536
 1679 009a 5200     		lsls	r2, r2, #1
 1680 009c B3FA83F3 		clz	r3, r3
 1681 00a0 22FA03F3 		lsr	r3, r2, r3
 1682 00a4 8362     		str	r3, [r0, #40]
 1683 00a6 4B68     		ldr	r3, [r1, #4]
 1684 00a8 4FF07062 		mov	r2, #251658240
 1685              		.syntax unified
 1686              	@ 531 "Drivers/CMSIS/Include/cmsis_gcc.h" 1
 1687 00ac 92FAA2F2 		rbit r2, r2
 1688              	@ 0 "" 2
 1689              		.thumb
 1690              		.syntax unified
 1691 00b0 B2FA82F2 		clz	r2, r2
 1692 00b4 03F07063 		and	r3, r3, #251658240
 1693 00b8 D340     		lsrs	r3, r3, r2
 1694 00ba C362     		str	r3, [r0, #44]
 1695 00bc 4B68     		ldr	r3, [r1, #4]
 1696 00be 4FF0E042 		mov	r2, #1879048192
 1697              		.syntax unified
 1698              	@ 531 "Drivers/CMSIS/Include/cmsis_gcc.h" 1
 1699 00c2 92FAA2F2 		rbit r2, r2
 1700              	@ 0 "" 2
 1701              		.thumb
 1702              		.syntax unified
 1703 00c6 B2FA82F2 		clz	r2, r2
 1704 00ca 03F0E043 		and	r3, r3, #1879048192
 1705 00ce D340     		lsrs	r3, r3, r2
 1706 00d0 0363     		str	r3, [r0, #48]
 1707 00d2 5DF8044B 		ldr	r4, [sp], #4
 1708 00d6 7047     		bx	lr
 1709              	.L292:
 1710 00d8 1B68     		ldr	r3, [r3]
 1711 00da 13F48033 		ands	r3, r3, #65536
 1712 00de 18BF     		it	ne
 1713 00e0 4FF48033 		movne	r3, #65536
 1714 00e4 4360     		str	r3, [r0, #4]
 1715 00e6 95E7     		b	.L293
 1716              	.L297:
 1717 00e8 0B6F     		ldr	r3, [r1, #112]
 1718 00ea 13F00103 		ands	r3, r3, #1
 1719 00ee 18BF     		it	ne
 1720 00f0 0123     		movne	r3, #1
 1721 00f2 8360     		str	r3, [r0, #8]
ARM GAS  /tmp/ccQwbCpg.s 			page 31


 1722 00f4 A5E7     		b	.L298
 1723              	.L306:
 1724 00f6 00BF     		.align	2
 1725              	.L305:
 1726 00f8 00380240 		.word	1073887232
 1728              		.section	.text.HAL_RCCEx_SelectLSEMode,"ax",%progbits
 1729              		.align	2
 1730              		.global	HAL_RCCEx_SelectLSEMode
 1731              		.thumb
 1732              		.thumb_func
 1734              	HAL_RCCEx_SelectLSEMode:
 1735              		@ args = 0, pretend = 0, frame = 0
 1736              		@ frame_needed = 0, uses_anonymous_args = 0
 1737              		@ link register save eliminated.
 1738 0000 044A     		ldr	r2, .L310
 1739 0002 136F     		ldr	r3, [r2, #112]
 1740 0004 0128     		cmp	r0, #1
 1741 0006 0CBF     		ite	eq
 1742 0008 43F00803 		orreq	r3, r3, #8
 1743 000c 23F00803 		bicne	r3, r3, #8
 1744 0010 1367     		str	r3, [r2, #112]
 1745 0012 7047     		bx	lr
 1746              	.L311:
 1747              		.align	2
 1748              	.L310:
 1749 0014 00380240 		.word	1073887232
 1751              		.section	.text.HAL_RCC_GetSysClockFreq,"ax",%progbits
 1752              		.align	2
 1753              		.global	HAL_RCC_GetSysClockFreq
 1754              		.thumb
 1755              		.thumb_func
 1757              	HAL_RCC_GetSysClockFreq:
 1758              		@ args = 0, pretend = 0, frame = 0
 1759              		@ frame_needed = 0, uses_anonymous_args = 0
 1760              		@ link register save eliminated.
 1761 0000 314A     		ldr	r2, .L322
 1762 0002 9068     		ldr	r0, [r2, #8]
 1763 0004 00F00C00 		and	r0, r0, #12
 1764 0008 0828     		cmp	r0, #8
 1765 000a 08D0     		beq	.L314
 1766 000c 0C28     		cmp	r0, #12
 1767 000e 31D0     		beq	.L315
 1768 0010 2E4B     		ldr	r3, .L322+4
 1769 0012 2F4A     		ldr	r2, .L322+8
 1770 0014 0428     		cmp	r0, #4
 1771 0016 0CBF     		ite	eq
 1772 0018 1846     		moveq	r0, r3
 1773 001a 1046     		movne	r0, r2
 1774 001c 7047     		bx	lr
 1775              	.L314:
 1776 001e 5368     		ldr	r3, [r2, #4]
 1777 0020 5168     		ldr	r1, [r2, #4]
 1778 0022 03F03F03 		and	r3, r3, #63
 1779 0026 11F4800F 		tst	r1, #4194304
 1780 002a 47F6C070 		movw	r0, #32704
 1781 002e 5168     		ldr	r1, [r2, #4]
 1782              		.syntax unified
ARM GAS  /tmp/ccQwbCpg.s 			page 32


 1783              	@ 531 "Drivers/CMSIS/Include/cmsis_gcc.h" 1
 1784 0030 90FAA0F0 		rbit r0, r0
 1785              	@ 0 "" 2
 1786              		.thumb
 1787              		.syntax unified
 1788 0034 47F6C072 		movw	r2, #32704
 1789 0038 02EA0102 		and	r2, r2, r1
 1790 003c B0FA80F0 		clz	r0, r0
 1791 0040 22FA00F0 		lsr	r0, r2, r0
 1792 0044 14BF     		ite	ne
 1793 0046 214A     		ldrne	r2, .L322+4
 1794 0048 214A     		ldreq	r2, .L322+8
 1795 004a B2FBF3F3 		udiv	r3, r2, r3
 1796 004e 1E4A     		ldr	r2, .L322
 1797 0050 03FB00F3 		mul	r3, r3, r0
 1798 0054 5268     		ldr	r2, [r2, #4]
 1799 0056 4FF44030 		mov	r0, #196608
 1800              		.syntax unified
 1801              	@ 531 "Drivers/CMSIS/Include/cmsis_gcc.h" 1
 1802 005a 90FAA0F0 		rbit r0, r0
 1803              	@ 0 "" 2
 1804              		.thumb
 1805              		.syntax unified
 1806 005e 02F44032 		and	r2, r2, #196608
 1807 0062 B0FA80F0 		clz	r0, r0
 1808 0066 22FA00F0 		lsr	r0, r2, r0
 1809 006a 0130     		adds	r0, r0, #1
 1810 006c 4000     		lsls	r0, r0, #1
 1811 006e B3FBF0F0 		udiv	r0, r3, r0
 1812 0072 7047     		bx	lr
 1813              	.L315:
 1814 0074 5368     		ldr	r3, [r2, #4]
 1815 0076 5168     		ldr	r1, [r2, #4]
 1816 0078 03F03F03 		and	r3, r3, #63
 1817 007c 11F4800F 		tst	r1, #4194304
 1818 0080 47F6C070 		movw	r0, #32704
 1819 0084 5168     		ldr	r1, [r2, #4]
 1820              		.syntax unified
 1821              	@ 531 "Drivers/CMSIS/Include/cmsis_gcc.h" 1
 1822 0086 90FAA0F0 		rbit r0, r0
 1823              	@ 0 "" 2
 1824              		.thumb
 1825              		.syntax unified
 1826 008a 47F6C072 		movw	r2, #32704
 1827 008e 02EA0102 		and	r2, r2, r1
 1828 0092 B0FA80F0 		clz	r0, r0
 1829 0096 22FA00F0 		lsr	r0, r2, r0
 1830 009a 14BF     		ite	ne
 1831 009c 0B4A     		ldrne	r2, .L322+4
 1832 009e 0C4A     		ldreq	r2, .L322+8
 1833 00a0 B2FBF3F3 		udiv	r3, r2, r3
 1834 00a4 084A     		ldr	r2, .L322
 1835 00a6 03FB00F3 		mul	r3, r3, r0
 1836 00aa 5268     		ldr	r2, [r2, #4]
 1837 00ac 4FF0E040 		mov	r0, #1879048192
 1838              		.syntax unified
 1839              	@ 531 "Drivers/CMSIS/Include/cmsis_gcc.h" 1
ARM GAS  /tmp/ccQwbCpg.s 			page 33


 1840 00b0 90FAA0F0 		rbit r0, r0
 1841              	@ 0 "" 2
 1842              		.thumb
 1843              		.syntax unified
 1844 00b4 02F0E042 		and	r2, r2, #1879048192
 1845 00b8 B0FA80F0 		clz	r0, r0
 1846 00bc 22FA00F0 		lsr	r0, r2, r0
 1847 00c0 B3FBF0F0 		udiv	r0, r3, r0
 1848 00c4 7047     		bx	lr
 1849              	.L323:
 1850 00c6 00BF     		.align	2
 1851              	.L322:
 1852 00c8 00380240 		.word	1073887232
 1853 00cc 00127A00 		.word	8000000
 1854 00d0 0024F400 		.word	16000000
 1856              		.ident	"GCC: (GNU Tools for ARM Embedded Processors) 5.4.1 20160919 (release) [ARM/embedded-5-bran
ARM GAS  /tmp/ccQwbCpg.s 			page 34


DEFINED SYMBOLS
                            *ABS*:00000000 stm32f4xx_hal_rcc_ex.c
     /tmp/ccQwbCpg.s:18     .text.HAL_RCC_DeInit:00000000 $t
     /tmp/ccQwbCpg.s:23     .text.HAL_RCC_DeInit:00000000 HAL_RCC_DeInit
     /tmp/ccQwbCpg.s:60     .text.HAL_RCC_DeInit:00000050 $d
     /tmp/ccQwbCpg.s:66     .text.HAL_RCCEx_PeriphCLKConfig:00000000 $t
     /tmp/ccQwbCpg.s:71     .text.HAL_RCCEx_PeriphCLKConfig:00000000 HAL_RCCEx_PeriphCLKConfig
     /tmp/ccQwbCpg.s:410    .text.HAL_RCCEx_PeriphCLKConfig:000002d4 $d
     /tmp/ccQwbCpg.s:415    .text.HAL_RCCEx_PeriphCLKConfig:000002e4 $t
     /tmp/ccQwbCpg.s:802    .text.HAL_RCCEx_PeriphCLKConfig:000005e8 $d
     /tmp/ccQwbCpg.s:807    .text.HAL_RCCEx_GetPeriphCLKConfig:00000000 $t
     /tmp/ccQwbCpg.s:812    .text.HAL_RCCEx_GetPeriphCLKConfig:00000000 HAL_RCCEx_GetPeriphCLKConfig
     /tmp/ccQwbCpg.s:997    .text.HAL_RCCEx_GetPeriphCLKConfig:00000188 $d
     /tmp/ccQwbCpg.s:1000   .text.HAL_RCCEx_GetPeriphCLKFreq:00000000 $t
     /tmp/ccQwbCpg.s:1005   .text.HAL_RCCEx_GetPeriphCLKFreq:00000000 HAL_RCCEx_GetPeriphCLKFreq
     /tmp/ccQwbCpg.s:1106   .text.HAL_RCCEx_GetPeriphCLKFreq:000000f4 $d
     /tmp/ccQwbCpg.s:1112   .text.HAL_RCC_OscConfig:00000000 $t
     /tmp/ccQwbCpg.s:1117   .text.HAL_RCC_OscConfig:00000000 HAL_RCC_OscConfig
     /tmp/ccQwbCpg.s:1459   .text.HAL_RCC_OscConfig:000002b8 $d
     /tmp/ccQwbCpg.s:1465   .text.HAL_RCC_OscConfig:000002cc $t
     /tmp/ccQwbCpg.s:1588   .text.HAL_RCC_OscConfig:000003bc $d
     /tmp/ccQwbCpg.s:1592   .text.HAL_RCC_GetOscConfig:00000000 $t
     /tmp/ccQwbCpg.s:1597   .text.HAL_RCC_GetOscConfig:00000000 HAL_RCC_GetOscConfig
     /tmp/ccQwbCpg.s:1726   .text.HAL_RCC_GetOscConfig:000000f8 $d
     /tmp/ccQwbCpg.s:1729   .text.HAL_RCCEx_SelectLSEMode:00000000 $t
     /tmp/ccQwbCpg.s:1734   .text.HAL_RCCEx_SelectLSEMode:00000000 HAL_RCCEx_SelectLSEMode
     /tmp/ccQwbCpg.s:1749   .text.HAL_RCCEx_SelectLSEMode:00000014 $d
     /tmp/ccQwbCpg.s:1752   .text.HAL_RCC_GetSysClockFreq:00000000 $t
     /tmp/ccQwbCpg.s:1757   .text.HAL_RCC_GetSysClockFreq:00000000 HAL_RCC_GetSysClockFreq
     /tmp/ccQwbCpg.s:1852   .text.HAL_RCC_GetSysClockFreq:000000c8 $d

UNDEFINED SYMBOLS
SystemCoreClock
HAL_GetTick
