ARM GAS  /tmp/ccnv85g7.s 			page 1


   1              		.syntax unified
   2              		.cpu cortex-m4
   3              		.eabi_attribute 27, 1
   4              		.fpu fpv4-sp-d16
   5              		.eabi_attribute 20, 1
   6              		.eabi_attribute 21, 1
   7              		.eabi_attribute 23, 3
   8              		.eabi_attribute 24, 1
   9              		.eabi_attribute 25, 1
  10              		.eabi_attribute 26, 1
  11              		.eabi_attribute 30, 2
  12              		.eabi_attribute 34, 1
  13              		.eabi_attribute 18, 4
  14              		.thumb
  15              		.syntax unified
  16              		.file	"stm32f4xx_hal_dma_ex.c"
  17              		.section	.text.HAL_DMAEx_MultiBufferStart,"ax",%progbits
  18              		.align	2
  19              		.global	HAL_DMAEx_MultiBufferStart
  20              		.thumb
  21              		.thumb_func
  23              	HAL_DMAEx_MultiBufferStart:
  24              		@ args = 4, pretend = 0, frame = 0
  25              		@ frame_needed = 0, uses_anonymous_args = 0
  26              		@ link register save eliminated.
  27 0000 70B4     		push	{r4, r5, r6}
  28 0002 8468     		ldr	r4, [r0, #8]
  29 0004 802C     		cmp	r4, #128
  30 0006 24D0     		beq	.L10
  31 0008 90F83450 		ldrb	r5, [r0, #52]	@ zero_extendqisi2
  32 000c 012D     		cmp	r5, #1
  33 000e 06D0     		beq	.L5
  34 0010 90F83550 		ldrb	r5, [r0, #53]	@ zero_extendqisi2
  35 0014 0126     		movs	r6, #1
  36 0016 B542     		cmp	r5, r6
  37 0018 80F83460 		strb	r6, [r0, #52]
  38 001c 02D0     		beq	.L11
  39              	.L5:
  40 001e 0220     		movs	r0, #2
  41              	.L3:
  42 0020 70BC     		pop	{r4, r5, r6}
  43 0022 7047     		bx	lr
  44              	.L11:
  45 0024 0568     		ldr	r5, [r0]
  46 0026 0226     		movs	r6, #2
  47 0028 80F83560 		strb	r6, [r0, #53]
  48 002c 2868     		ldr	r0, [r5]
  49 002e 40F48020 		orr	r0, r0, #262144
  50 0032 2860     		str	r0, [r5]
  51 0034 402C     		cmp	r4, #64
  52 0036 2B61     		str	r3, [r5, #16]
  53 0038 039B     		ldr	r3, [sp, #12]
  54 003a 6B60     		str	r3, [r5, #4]
  55 003c 0BBF     		itete	eq
  56 003e AA60     		streq	r2, [r5, #8]
  57 0040 A960     		strne	r1, [r5, #8]
  58 0042 E960     		streq	r1, [r5, #12]
ARM GAS  /tmp/ccnv85g7.s 			page 2


  59 0044 EA60     		strne	r2, [r5, #12]
  60 0046 2B68     		ldr	r3, [r5]
  61 0048 43F00103 		orr	r3, r3, #1
  62 004c 2B60     		str	r3, [r5]
  63 004e 0020     		movs	r0, #0
  64 0050 E6E7     		b	.L3
  65              	.L10:
  66 0052 4FF48073 		mov	r3, #256
  67 0056 4365     		str	r3, [r0, #84]
  68 0058 70BC     		pop	{r4, r5, r6}
  69 005a 0120     		movs	r0, #1
  70 005c 7047     		bx	lr
  72 005e 00BF     		.section	.text.HAL_DMAEx_MultiBufferStart_IT,"ax",%progbits
  73              		.align	2
  74              		.global	HAL_DMAEx_MultiBufferStart_IT
  75              		.thumb
  76              		.thumb_func
  78              	HAL_DMAEx_MultiBufferStart_IT:
  79              		@ args = 4, pretend = 0, frame = 0
  80              		@ frame_needed = 0, uses_anonymous_args = 0
  81              		@ link register save eliminated.
  82 0000 F0B4     		push	{r4, r5, r6, r7}
  83 0002 8468     		ldr	r4, [r0, #8]
  84 0004 802C     		cmp	r4, #128
  85 0006 1ED0     		beq	.L117
  86 0008 C56B     		ldr	r5, [r0, #60]
  87 000a BDB1     		cbz	r5, .L15
  88 000c 456C     		ldr	r5, [r0, #68]
  89 000e ADB1     		cbz	r5, .L15
  90 0010 C56C     		ldr	r5, [r0, #76]
  91 0012 9DB1     		cbz	r5, .L15
  92 0014 90F83450 		ldrb	r5, [r0, #52]	@ zero_extendqisi2
  93 0018 012D     		cmp	r5, #1
  94 001a 0CD0     		beq	.L79
  95 001c 90F83550 		ldrb	r5, [r0, #53]	@ zero_extendqisi2
  96 0020 0126     		movs	r6, #1
  97 0022 B542     		cmp	r5, r6
  98 0024 80F83460 		strb	r6, [r0, #52]
  99 0028 13D0     		beq	.L118
 100 002a 0023     		movs	r3, #0
 101 002c 80F83430 		strb	r3, [r0, #52]
 102 0030 0220     		movs	r0, #2
 103              	.L97:
 104 0032 F0BC     		pop	{r4, r5, r6, r7}
 105 0034 7047     		bx	lr
 106              	.L79:
 107 0036 0220     		movs	r0, #2
 108 0038 F0BC     		pop	{r4, r5, r6, r7}
 109 003a 7047     		bx	lr
 110              	.L15:
 111 003c 4023     		movs	r3, #64
 112 003e 4365     		str	r3, [r0, #84]
 113 0040 F0BC     		pop	{r4, r5, r6, r7}
 114 0042 0120     		movs	r0, #1
 115 0044 7047     		bx	lr
 116              	.L117:
 117 0046 4FF48073 		mov	r3, #256
ARM GAS  /tmp/ccnv85g7.s 			page 3


 118 004a 4365     		str	r3, [r0, #84]
 119 004c F0BC     		pop	{r4, r5, r6, r7}
 120 004e 0120     		movs	r0, #1
 121 0050 7047     		bx	lr
 122              	.L118:
 123 0052 0568     		ldr	r5, [r0]
 124 0054 0026     		movs	r6, #0
 125 0056 0227     		movs	r7, #2
 126 0058 80F83570 		strb	r7, [r0, #53]
 127 005c 4665     		str	r6, [r0, #84]
 128 005e 2E68     		ldr	r6, [r5]
 129 0060 46F48026 		orr	r6, r6, #262144
 130 0064 2E60     		str	r6, [r5]
 131 0066 2B61     		str	r3, [r5, #16]
 132 0068 049B     		ldr	r3, [sp, #16]
 133 006a 6B60     		str	r3, [r5, #4]
 134 006c B34B     		ldr	r3, .L133
 135 006e 402C     		cmp	r4, #64
 136 0070 0BBF     		itete	eq
 137 0072 AA60     		streq	r2, [r5, #8]
 138 0074 A960     		strne	r1, [r5, #8]
 139 0076 E960     		streq	r1, [r5, #12]
 140 0078 EA60     		strne	r2, [r5, #12]
 141 007a 9D42     		cmp	r5, r3
 142 007c 51D8     		bhi	.L119
 143 007e B04B     		ldr	r3, .L133+4
 144 0080 9D42     		cmp	r5, r3
 145 0082 40F28780 		bls	.L24
 146 0086 03F55673 		add	r3, r3, #856
 147 008a 9D42     		cmp	r5, r3
 148 008c 00F00481 		beq	.L25
 149 0090 1833     		adds	r3, r3, #24
 150 0092 9D42     		cmp	r5, r3
 151 0094 00F03981 		beq	.L26
 152 0098 1833     		adds	r3, r3, #24
 153 009a 9D42     		cmp	r5, r3
 154 009c 00F07F81 		beq	.L120
 155 00a0 A84B     		ldr	r3, .L133+8
 156 00a2 4FF00062 		mov	r2, #134217728
 157 00a6 9A60     		str	r2, [r3, #8]
 158 00a8 4FF08061 		mov	r1, #67108864
 159              	.L72:
 160 00ac A64A     		ldr	r2, .L133+12
 161 00ae A54B     		ldr	r3, .L133+8
 162 00b0 9542     		cmp	r5, r2
 163 00b2 9960     		str	r1, [r3, #8]
 164 00b4 00F0F580 		beq	.L41
 165 00b8 A44A     		ldr	r2, .L133+16
 166 00ba 9542     		cmp	r5, r2
 167 00bc 00F01881 		beq	.L49
 168 00c0 1832     		adds	r2, r2, #24
 169 00c2 9542     		cmp	r5, r2
 170 00c4 00F07981 		beq	.L121
 171 00c8 4FF00072 		mov	r2, #33554432
 172 00cc 9A60     		str	r2, [r3, #8]
 173 00ce 4FF08071 		mov	r1, #16777216
 174              	.L76:
ARM GAS  /tmp/ccnv85g7.s 			page 4


 175 00d2 9D4B     		ldr	r3, .L133+12
 176 00d4 9B4A     		ldr	r2, .L133+8
 177 00d6 9D42     		cmp	r5, r3
 178 00d8 9160     		str	r1, [r2, #8]
 179 00da 00F09481 		beq	.L122
 180 00de 9B4B     		ldr	r3, .L133+16
 181 00e0 9D42     		cmp	r5, r3
 182 00e2 00F01981 		beq	.L82
 183 00e6 9A4A     		ldr	r2, .L133+20
 184 00e8 9542     		cmp	r5, r2
 185 00ea 14BF     		ite	ne
 186 00ec 4FF48002 		movne	r2, #4194304
 187 00f0 4FF48032 		moveq	r2, #65536
 188              	.L61:
 189 00f4 934B     		ldr	r3, .L133+8
 190 00f6 9A60     		str	r2, [r3, #8]
 191              	.L66:
 192 00f8 2B68     		ldr	r3, [r5]
 193 00fa 026C     		ldr	r2, [r0, #64]
 194 00fc 43F01603 		orr	r3, r3, #22
 195 0100 2B60     		str	r3, [r5]
 196 0102 6B69     		ldr	r3, [r5, #20]
 197 0104 43F08003 		orr	r3, r3, #128
 198 0108 6B61     		str	r3, [r5, #20]
 199 010a 002A     		cmp	r2, #0
 200 010c 7ED0     		beq	.L123
 201              	.L67:
 202 010e 2B68     		ldr	r3, [r5]
 203 0110 43F00803 		orr	r3, r3, #8
 204 0114 2B60     		str	r3, [r5]
 205              	.L68:
 206 0116 2B68     		ldr	r3, [r5]
 207 0118 43F00103 		orr	r3, r3, #1
 208 011c 2B60     		str	r3, [r5]
 209 011e 0020     		movs	r0, #0
 210 0120 87E7     		b	.L97
 211              	.L119:
 212 0122 8C4B     		ldr	r3, .L133+24
 213 0124 9D42     		cmp	r5, r3
 214 0126 00F0AB80 		beq	.L20
 215 012a 1833     		adds	r3, r3, #24
 216 012c 9D42     		cmp	r5, r3
 217 012e 00F0E580 		beq	.L21
 218 0132 1833     		adds	r3, r3, #24
 219 0134 9D42     		cmp	r5, r3
 220 0136 00F03981 		beq	.L124
 221 013a 824B     		ldr	r3, .L133+8
 222 013c 4FF00062 		mov	r2, #134217728
 223 0140 DA60     		str	r2, [r3, #12]
 224 0142 4FF08061 		mov	r1, #67108864
 225              	.L71:
 226 0146 834A     		ldr	r2, .L133+24
 227 0148 7E4B     		ldr	r3, .L133+8
 228 014a 9542     		cmp	r5, r2
 229 014c D960     		str	r1, [r3, #12]
 230 014e 00F09C80 		beq	.L39
 231 0152 814A     		ldr	r2, .L133+28
ARM GAS  /tmp/ccnv85g7.s 			page 5


 232 0154 9542     		cmp	r5, r2
 233 0156 00F0C580 		beq	.L46
 234 015a 1832     		adds	r2, r2, #24
 235 015c 9542     		cmp	r5, r2
 236 015e 00F03281 		beq	.L125
 237 0162 4FF00072 		mov	r2, #33554432
 238 0166 DA60     		str	r2, [r3, #12]
 239 0168 4FF08071 		mov	r1, #16777216
 240              	.L75:
 241 016c 794B     		ldr	r3, .L133+24
 242 016e 754A     		ldr	r2, .L133+8
 243 0170 9D42     		cmp	r5, r3
 244 0172 D160     		str	r1, [r2, #12]
 245 0174 00F04981 		beq	.L126
 246 0178 774B     		ldr	r3, .L133+28
 247 017a 9D42     		cmp	r5, r3
 248 017c 00F0B080 		beq	.L80
 249 0180 764A     		ldr	r2, .L133+32
 250 0182 9542     		cmp	r5, r2
 251 0184 14BF     		ite	ne
 252 0186 4FF48002 		movne	r2, #4194304
 253 018a 4FF48032 		moveq	r2, #65536
 254              	.L59:
 255 018e 6D4B     		ldr	r3, .L133+8
 256 0190 DA60     		str	r2, [r3, #12]
 257 0192 B1E7     		b	.L66
 258              	.L24:
 259 0194 724B     		ldr	r3, .L133+36
 260 0196 9D42     		cmp	r5, r3
 261 0198 3DD9     		bls	.L29
 262 019a 1833     		adds	r3, r3, #24
 263 019c 9D42     		cmp	r5, r3
 264 019e 00F09380 		beq	.L30
 265 01a2 1833     		adds	r3, r3, #24
 266 01a4 9D42     		cmp	r5, r3
 267 01a6 00F0F380 		beq	.L31
 268 01aa 1833     		adds	r3, r3, #24
 269 01ac 9D42     		cmp	r5, r3
 270 01ae 00F02381 		beq	.L127
 271 01b2 6C4B     		ldr	r3, .L133+40
 272 01b4 4FF00062 		mov	r2, #134217728
 273 01b8 DA60     		str	r2, [r3, #12]
 274 01ba 4FF08061 		mov	r1, #67108864
 275              	.L73:
 276 01be 6A4A     		ldr	r2, .L133+44
 277 01c0 684B     		ldr	r3, .L133+40
 278 01c2 9542     		cmp	r5, r2
 279 01c4 D960     		str	r1, [r3, #12]
 280 01c6 00F08480 		beq	.L43
 281 01ca 684A     		ldr	r2, .L133+48
 282 01cc 9542     		cmp	r5, r2
 283 01ce 00F0D980 		beq	.L52
 284 01d2 1832     		adds	r2, r2, #24
 285 01d4 9542     		cmp	r5, r2
 286 01d6 00F0FC80 		beq	.L128
 287 01da 4FF00072 		mov	r2, #33554432
 288 01de DA60     		str	r2, [r3, #12]
ARM GAS  /tmp/ccnv85g7.s 			page 6


 289 01e0 4FF08071 		mov	r1, #16777216
 290              	.L77:
 291 01e4 604B     		ldr	r3, .L133+44
 292 01e6 5F4A     		ldr	r2, .L133+40
 293 01e8 9D42     		cmp	r5, r3
 294 01ea D160     		str	r1, [r2, #12]
 295 01ec 00F00F81 		beq	.L129
 296 01f0 5E4B     		ldr	r3, .L133+48
 297 01f2 9D42     		cmp	r5, r3
 298 01f4 00F0C480 		beq	.L84
 299 01f8 1833     		adds	r3, r3, #24
 300 01fa 9D42     		cmp	r5, r3
 301 01fc 14BF     		ite	ne
 302 01fe 4FF48003 		movne	r3, #4194304
 303 0202 4FF48033 		moveq	r3, #65536
 304              	.L63:
 305 0206 574A     		ldr	r2, .L133+40
 306 0208 D360     		str	r3, [r2, #12]
 307 020a 75E7     		b	.L66
 308              	.L123:
 309 020c 836C     		ldr	r3, [r0, #72]
 310 020e 002B     		cmp	r3, #0
 311 0210 7FF47DAF 		bne	.L67
 312 0214 7FE7     		b	.L68
 313              	.L29:
 314 0216 564B     		ldr	r3, .L133+52
 315 0218 9D42     		cmp	r5, r3
 316 021a 49D0     		beq	.L34
 317 021c 1833     		adds	r3, r3, #24
 318 021e 9D42     		cmp	r5, r3
 319 0220 00F08480 		beq	.L35
 320 0224 1833     		adds	r3, r3, #24
 321 0226 9D42     		cmp	r5, r3
 322 0228 00F0DF80 		beq	.L130
 323 022c 4D4B     		ldr	r3, .L133+40
 324 022e 4FF00062 		mov	r2, #134217728
 325 0232 9A60     		str	r2, [r3, #8]
 326 0234 4FF08061 		mov	r1, #67108864
 327              	.L74:
 328 0238 4D4A     		ldr	r2, .L133+52
 329 023a 4A4B     		ldr	r3, .L133+40
 330 023c 9542     		cmp	r5, r2
 331 023e 9960     		str	r1, [r3, #8]
 332 0240 3BD0     		beq	.L45
 333 0242 4C4A     		ldr	r2, .L133+56
 334 0244 9542     		cmp	r5, r2
 335 0246 6BD0     		beq	.L55
 336 0248 1832     		adds	r2, r2, #24
 337 024a 9542     		cmp	r5, r2
 338 024c 00F0C780 		beq	.L131
 339 0250 4FF00072 		mov	r2, #33554432
 340 0254 9A60     		str	r2, [r3, #8]
 341 0256 4FF08071 		mov	r1, #16777216
 342              	.L78:
 343 025a 454B     		ldr	r3, .L133+52
 344 025c 414A     		ldr	r2, .L133+40
 345 025e 9D42     		cmp	r5, r3
ARM GAS  /tmp/ccnv85g7.s 			page 7


 346 0260 9160     		str	r1, [r2, #8]
 347 0262 00F0D680 		beq	.L132
 348 0266 434B     		ldr	r3, .L133+56
 349 0268 9D42     		cmp	r5, r3
 350 026a 57D0     		beq	.L86
 351 026c 1833     		adds	r3, r3, #24
 352 026e 9D42     		cmp	r5, r3
 353 0270 14BF     		ite	ne
 354 0272 4FF48003 		movne	r3, #4194304
 355 0276 4FF48033 		moveq	r3, #65536
 356              	.L65:
 357 027a 3A4A     		ldr	r2, .L133+40
 358 027c 9360     		str	r3, [r2, #8]
 359 027e 3BE7     		b	.L66
 360              	.L20:
 361 0280 304B     		ldr	r3, .L133+8
 362 0282 2021     		movs	r1, #32
 363 0284 1022     		movs	r2, #16
 364 0286 D960     		str	r1, [r3, #12]
 365 0288 DA60     		str	r2, [r3, #12]
 366              	.L39:
 367 028a 2E4B     		ldr	r3, .L133+8
 368 028c 3A49     		ldr	r1, .L133+60
 369 028e 3B4A     		ldr	r2, .L133+64
 370 0290 0824     		movs	r4, #8
 371 0292 DC60     		str	r4, [r3, #12]
 372 0294 D960     		str	r1, [r3, #12]
 373 0296 7AE7     		b	.L59
 374              	.L25:
 375 0298 2A4B     		ldr	r3, .L133+8
 376 029a 2021     		movs	r1, #32
 377 029c 1022     		movs	r2, #16
 378 029e 9960     		str	r1, [r3, #8]
 379 02a0 9A60     		str	r2, [r3, #8]
 380              	.L41:
 381 02a2 284B     		ldr	r3, .L133+8
 382 02a4 3449     		ldr	r1, .L133+60
 383 02a6 354A     		ldr	r2, .L133+64
 384 02a8 0824     		movs	r4, #8
 385 02aa 9C60     		str	r4, [r3, #8]
 386 02ac 9960     		str	r1, [r3, #8]
 387 02ae 21E7     		b	.L61
 388              	.L34:
 389 02b0 2C4B     		ldr	r3, .L133+40
 390 02b2 2021     		movs	r1, #32
 391 02b4 1022     		movs	r2, #16
 392 02b6 9960     		str	r1, [r3, #8]
 393 02b8 9A60     		str	r2, [r3, #8]
 394              	.L45:
 395 02ba 2A4A     		ldr	r2, .L133+40
 396 02bc 2E49     		ldr	r1, .L133+60
 397 02be 2F4B     		ldr	r3, .L133+64
 398 02c0 0824     		movs	r4, #8
 399 02c2 9460     		str	r4, [r2, #8]
 400 02c4 9160     		str	r1, [r2, #8]
 401 02c6 D8E7     		b	.L65
 402              	.L30:
ARM GAS  /tmp/ccnv85g7.s 			page 8


 403 02c8 264B     		ldr	r3, .L133+40
 404 02ca 2021     		movs	r1, #32
 405 02cc 1022     		movs	r2, #16
 406 02ce D960     		str	r1, [r3, #12]
 407 02d0 DA60     		str	r2, [r3, #12]
 408              	.L43:
 409 02d2 244A     		ldr	r2, .L133+40
 410 02d4 2849     		ldr	r1, .L133+60
 411 02d6 294B     		ldr	r3, .L133+64
 412 02d8 0824     		movs	r4, #8
 413 02da D460     		str	r4, [r2, #12]
 414 02dc D160     		str	r1, [r2, #12]
 415 02de 92E7     		b	.L63
 416              	.L80:
 417 02e0 4022     		movs	r2, #64
 418 02e2 54E7     		b	.L59
 419              	.L46:
 420 02e4 4FF40072 		mov	r2, #512
 421 02e8 DA60     		str	r2, [r3, #12]
 422 02ea 4FF48071 		mov	r1, #256
 423 02ee 3DE7     		b	.L75
 424              	.L49:
 425 02f0 4FF40072 		mov	r2, #512
 426 02f4 9A60     		str	r2, [r3, #8]
 427 02f6 4FF48071 		mov	r1, #256
 428 02fa EAE6     		b	.L76
 429              	.L21:
 430 02fc 114B     		ldr	r3, .L133+8
 431 02fe 4FF40062 		mov	r2, #2048
 432 0302 DA60     		str	r2, [r3, #12]
 433 0304 4FF48061 		mov	r1, #1024
 434 0308 1DE7     		b	.L71
 435              	.L26:
 436 030a 0E4B     		ldr	r3, .L133+8
 437 030c 4FF40062 		mov	r2, #2048
 438 0310 9A60     		str	r2, [r3, #8]
 439 0312 4FF48061 		mov	r1, #1024
 440 0316 C9E6     		b	.L72
 441              	.L82:
 442 0318 4022     		movs	r2, #64
 443 031a EBE6     		b	.L61
 444              	.L86:
 445 031c 4023     		movs	r3, #64
 446 031e ACE7     		b	.L65
 447              	.L55:
 448 0320 4FF40072 		mov	r2, #512
 449 0324 9A60     		str	r2, [r3, #8]
 450 0326 4FF48071 		mov	r1, #256
 451 032a 96E7     		b	.L78
 452              	.L35:
 453 032c 0D4B     		ldr	r3, .L133+40
 454 032e 4FF40062 		mov	r2, #2048
 455 0332 9A60     		str	r2, [r3, #8]
 456 0334 4FF48061 		mov	r1, #1024
 457 0338 7EE7     		b	.L74
 458              	.L134:
 459 033a 00BF     		.align	2
ARM GAS  /tmp/ccnv85g7.s 			page 9


 460              	.L133:
 461 033c 58640240 		.word	1073898584
 462 0340 B8600240 		.word	1073897656
 463 0344 00640240 		.word	1073898496
 464 0348 10640240 		.word	1073898512
 465 034c 28640240 		.word	1073898536
 466 0350 40640240 		.word	1073898560
 467 0354 70640240 		.word	1073898608
 468 0358 88640240 		.word	1073898632
 469 035c A0640240 		.word	1073898656
 470 0360 58600240 		.word	1073897560
 471 0364 00600240 		.word	1073897472
 472 0368 70600240 		.word	1073897584
 473 036c 88600240 		.word	1073897608
 474 0370 10600240 		.word	1073897488
 475 0374 28600240 		.word	1073897512
 476 0378 04008000 		.word	8388612
 477 037c 01008000 		.word	8388609
 478              	.L84:
 479 0380 4023     		movs	r3, #64
 480 0382 40E7     		b	.L63
 481              	.L52:
 482 0384 4FF40072 		mov	r2, #512
 483 0388 DA60     		str	r2, [r3, #12]
 484 038a 4FF48071 		mov	r1, #256
 485 038e 29E7     		b	.L77
 486              	.L31:
 487 0390 214B     		ldr	r3, .L135
 488 0392 4FF40062 		mov	r2, #2048
 489 0396 DA60     		str	r2, [r3, #12]
 490 0398 4FF48061 		mov	r1, #1024
 491 039c 0FE7     		b	.L73
 492              	.L120:
 493 039e 1F4B     		ldr	r3, .L135+4
 494 03a0 4FF40012 		mov	r2, #2097152
 495 03a4 9A60     		str	r2, [r3, #8]
 496 03a6 4FF48011 		mov	r1, #1048576
 497 03aa 7FE6     		b	.L72
 498              	.L124:
 499 03ac 1B4B     		ldr	r3, .L135+4
 500 03ae 4FF40012 		mov	r2, #2097152
 501 03b2 DA60     		str	r2, [r3, #12]
 502 03b4 4FF48011 		mov	r1, #1048576
 503 03b8 C5E6     		b	.L71
 504              	.L121:
 505 03ba 4FF40022 		mov	r2, #524288
 506 03be 9A60     		str	r2, [r3, #8]
 507 03c0 4FF48021 		mov	r1, #262144
 508 03c4 85E6     		b	.L76
 509              	.L125:
 510 03c6 4FF40022 		mov	r2, #524288
 511 03ca DA60     		str	r2, [r3, #12]
 512 03cc 4FF48021 		mov	r1, #262144
 513 03d0 CCE6     		b	.L75
 514              	.L128:
 515 03d2 4FF40022 		mov	r2, #524288
 516 03d6 DA60     		str	r2, [r3, #12]
ARM GAS  /tmp/ccnv85g7.s 			page 10


 517 03d8 4FF48021 		mov	r1, #262144
 518 03dc 02E7     		b	.L77
 519              	.L131:
 520 03de 4FF40022 		mov	r2, #524288
 521 03e2 9A60     		str	r2, [r3, #8]
 522 03e4 4FF48021 		mov	r1, #262144
 523 03e8 37E7     		b	.L78
 524              	.L130:
 525 03ea 0B4B     		ldr	r3, .L135
 526 03ec 4FF40012 		mov	r2, #2097152
 527 03f0 9A60     		str	r2, [r3, #8]
 528 03f2 4FF48011 		mov	r1, #1048576
 529 03f6 1FE7     		b	.L74
 530              	.L127:
 531 03f8 074B     		ldr	r3, .L135
 532 03fa 4FF40012 		mov	r2, #2097152
 533 03fe DA60     		str	r2, [r3, #12]
 534 0400 4FF48011 		mov	r1, #1048576
 535 0404 DBE6     		b	.L73
 536              	.L122:
 537 0406 064A     		ldr	r2, .L135+8
 538 0408 74E6     		b	.L61
 539              	.L126:
 540 040a 054A     		ldr	r2, .L135+8
 541 040c BFE6     		b	.L59
 542              	.L129:
 543 040e 044B     		ldr	r3, .L135+8
 544 0410 F9E6     		b	.L63
 545              	.L132:
 546 0412 034B     		ldr	r3, .L135+8
 547 0414 31E7     		b	.L65
 548              	.L136:
 549 0416 00BF     		.align	2
 550              	.L135:
 551 0418 00600240 		.word	1073897472
 552 041c 00640240 		.word	1073898496
 553 0420 01008000 		.word	8388609
 555              		.section	.text.HAL_DMAEx_ChangeMemory,"ax",%progbits
 556              		.align	2
 557              		.global	HAL_DMAEx_ChangeMemory
 558              		.thumb
 559              		.thumb_func
 561              	HAL_DMAEx_ChangeMemory:
 562              		@ args = 0, pretend = 0, frame = 0
 563              		@ frame_needed = 0, uses_anonymous_args = 0
 564              		@ link register save eliminated.
 565 0000 0368     		ldr	r3, [r0]
 566 0002 12B1     		cbz	r2, .L140
 567 0004 1961     		str	r1, [r3, #16]
 568 0006 0020     		movs	r0, #0
 569 0008 7047     		bx	lr
 570              	.L140:
 571 000a D960     		str	r1, [r3, #12]
 572 000c 0020     		movs	r0, #0
 573 000e 7047     		bx	lr
 575              		.ident	"GCC: (GNU Tools for ARM Embedded Processors) 5.4.1 20160919 (release) [ARM/embedded-5-bran
ARM GAS  /tmp/ccnv85g7.s 			page 11


DEFINED SYMBOLS
                            *ABS*:00000000 stm32f4xx_hal_dma_ex.c
     /tmp/ccnv85g7.s:18     .text.HAL_DMAEx_MultiBufferStart:00000000 $t
     /tmp/ccnv85g7.s:23     .text.HAL_DMAEx_MultiBufferStart:00000000 HAL_DMAEx_MultiBufferStart
     /tmp/ccnv85g7.s:73     .text.HAL_DMAEx_MultiBufferStart_IT:00000000 $t
     /tmp/ccnv85g7.s:78     .text.HAL_DMAEx_MultiBufferStart_IT:00000000 HAL_DMAEx_MultiBufferStart_IT
     /tmp/ccnv85g7.s:461    .text.HAL_DMAEx_MultiBufferStart_IT:0000033c $d
     /tmp/ccnv85g7.s:479    .text.HAL_DMAEx_MultiBufferStart_IT:00000380 $t
     /tmp/ccnv85g7.s:551    .text.HAL_DMAEx_MultiBufferStart_IT:00000418 $d
     /tmp/ccnv85g7.s:556    .text.HAL_DMAEx_ChangeMemory:00000000 $t
     /tmp/ccnv85g7.s:561    .text.HAL_DMAEx_ChangeMemory:00000000 HAL_DMAEx_ChangeMemory

NO UNDEFINED SYMBOLS
