ARM GAS  /var/folders/_j/px34bss161g6w2_6fxy_byhh0000gn/T//ccIJgfGV.s 			page 1


   1              		.syntax unified
   2              		.cpu cortex-m4
   3              		.eabi_attribute 27, 1
   4              		.fpu fpv4-sp-d16
   5              		.eabi_attribute 20, 1
   6              		.eabi_attribute 21, 1
   7              		.eabi_attribute 23, 3
   8              		.eabi_attribute 24, 1
   9              		.eabi_attribute 25, 1
  10              		.eabi_attribute 26, 1
  11              		.eabi_attribute 30, 2
  12              		.eabi_attribute 34, 1
  13              		.eabi_attribute 18, 4
  14              		.thumb
  15              		.file	"stm32f4xx_hal_flash_ramfunc.c"
  16              		.section	.RamFunc,"ax",%progbits
  17              		.align	2
  18              		.global	HAL_FLASHEx_StopFlashInterfaceClk
  19              		.thumb
  20              		.thumb_func
  22              	HAL_FLASHEx_StopFlashInterfaceClk:
  23              		@ args = 0, pretend = 0, frame = 8
  24              		@ frame_needed = 0, uses_anonymous_args = 0
  25              		@ link register save eliminated.
  26 0000 82B0     		sub	sp, sp, #8
  27 0002 0020     		movs	r0, #0
  28 0004 084B     		ldr	r3, .L3
  29 0006 0190     		str	r0, [sp, #4]
  30 0008 1A6C     		ldr	r2, [r3, #64]
  31 000a 0849     		ldr	r1, .L3+4
  32 000c 42F08052 		orr	r2, r2, #268435456
  33 0010 1A64     		str	r2, [r3, #64]
  34 0012 1B6C     		ldr	r3, [r3, #64]
  35 0014 03F08053 		and	r3, r3, #268435456
  36 0018 0193     		str	r3, [sp, #4]
  37 001a 019B     		ldr	r3, [sp, #4]
  38 001c 0B68     		ldr	r3, [r1]
  39 001e 43F40013 		orr	r3, r3, #2097152
  40 0022 0B60     		str	r3, [r1]
  41 0024 02B0     		add	sp, sp, #8
  42              		@ sp needed
  43 0026 7047     		bx	lr
  44              	.L4:
  45              		.align	2
  46              	.L3:
  47 0028 00380240 		.word	1073887232
  48 002c 00700040 		.word	1073770496
  50              		.align	2
  51              		.global	HAL_FLASHEx_StartFlashInterfaceClk
  52              		.thumb
  53              		.thumb_func
  55              	HAL_FLASHEx_StartFlashInterfaceClk:
  56              		@ args = 0, pretend = 0, frame = 8
  57              		@ frame_needed = 0, uses_anonymous_args = 0
  58              		@ link register save eliminated.
  59 0030 82B0     		sub	sp, sp, #8
  60 0032 0020     		movs	r0, #0
ARM GAS  /var/folders/_j/px34bss161g6w2_6fxy_byhh0000gn/T//ccIJgfGV.s 			page 2


  61 0034 084B     		ldr	r3, .L7
  62 0036 0190     		str	r0, [sp, #4]
  63 0038 1A6C     		ldr	r2, [r3, #64]
  64 003a 0849     		ldr	r1, .L7+4
  65 003c 42F08052 		orr	r2, r2, #268435456
  66 0040 1A64     		str	r2, [r3, #64]
  67 0042 1B6C     		ldr	r3, [r3, #64]
  68 0044 03F08053 		and	r3, r3, #268435456
  69 0048 0193     		str	r3, [sp, #4]
  70 004a 019B     		ldr	r3, [sp, #4]
  71 004c 0B68     		ldr	r3, [r1]
  72 004e 23F40013 		bic	r3, r3, #2097152
  73 0052 0B60     		str	r3, [r1]
  74 0054 02B0     		add	sp, sp, #8
  75              		@ sp needed
  76 0056 7047     		bx	lr
  77              	.L8:
  78              		.align	2
  79              	.L7:
  80 0058 00380240 		.word	1073887232
  81 005c 00700040 		.word	1073770496
  83              		.align	2
  84              		.global	HAL_FLASHEx_EnableFlashSleepMode
  85              		.thumb
  86              		.thumb_func
  88              	HAL_FLASHEx_EnableFlashSleepMode:
  89              		@ args = 0, pretend = 0, frame = 8
  90              		@ frame_needed = 0, uses_anonymous_args = 0
  91              		@ link register save eliminated.
  92 0060 82B0     		sub	sp, sp, #8
  93 0062 0020     		movs	r0, #0
  94 0064 084B     		ldr	r3, .L11
  95 0066 0190     		str	r0, [sp, #4]
  96 0068 1A6C     		ldr	r2, [r3, #64]
  97 006a 0849     		ldr	r1, .L11+4
  98 006c 42F08052 		orr	r2, r2, #268435456
  99 0070 1A64     		str	r2, [r3, #64]
 100 0072 1B6C     		ldr	r3, [r3, #64]
 101 0074 03F08053 		and	r3, r3, #268435456
 102 0078 0193     		str	r3, [sp, #4]
 103 007a 019B     		ldr	r3, [sp, #4]
 104 007c 0B68     		ldr	r3, [r1]
 105 007e 43F48013 		orr	r3, r3, #1048576
 106 0082 0B60     		str	r3, [r1]
 107 0084 02B0     		add	sp, sp, #8
 108              		@ sp needed
 109 0086 7047     		bx	lr
 110              	.L12:
 111              		.align	2
 112              	.L11:
 113 0088 00380240 		.word	1073887232
 114 008c 00700040 		.word	1073770496
 116              		.align	2
 117              		.global	HAL_FLASHEx_DisableFlashSleepMode
 118              		.thumb
 119              		.thumb_func
 121              	HAL_FLASHEx_DisableFlashSleepMode:
ARM GAS  /var/folders/_j/px34bss161g6w2_6fxy_byhh0000gn/T//ccIJgfGV.s 			page 3


 122              		@ args = 0, pretend = 0, frame = 8
 123              		@ frame_needed = 0, uses_anonymous_args = 0
 124              		@ link register save eliminated.
 125 0090 82B0     		sub	sp, sp, #8
 126 0092 0020     		movs	r0, #0
 127 0094 084B     		ldr	r3, .L15
 128 0096 0190     		str	r0, [sp, #4]
 129 0098 1A6C     		ldr	r2, [r3, #64]
 130 009a 0849     		ldr	r1, .L15+4
 131 009c 42F08052 		orr	r2, r2, #268435456
 132 00a0 1A64     		str	r2, [r3, #64]
 133 00a2 1B6C     		ldr	r3, [r3, #64]
 134 00a4 03F08053 		and	r3, r3, #268435456
 135 00a8 0193     		str	r3, [sp, #4]
 136 00aa 019B     		ldr	r3, [sp, #4]
 137 00ac 0B68     		ldr	r3, [r1]
 138 00ae 23F48013 		bic	r3, r3, #1048576
 139 00b2 0B60     		str	r3, [r1]
 140 00b4 02B0     		add	sp, sp, #8
 141              		@ sp needed
 142 00b6 7047     		bx	lr
 143              	.L16:
 144              		.align	2
 145              	.L15:
 146 00b8 00380240 		.word	1073887232
 147 00bc 00700040 		.word	1073770496
 149              		.ident	"GCC: (GNU Tools for ARM Embedded Processors) 4.9.3 20150529 (release) [ARM/embedded-4_9-br
ARM GAS  /var/folders/_j/px34bss161g6w2_6fxy_byhh0000gn/T//ccIJgfGV.s 			page 4

