ARM GAS  /tmp/ccuZJ4Yz.s 			page 1


   1              		.syntax unified
   2              		.cpu cortex-m4
   3              		.eabi_attribute 27, 1
   4              		.fpu fpv4-sp-d16
   5              		.eabi_attribute 20, 1
   6              		.eabi_attribute 21, 1
   7              		.eabi_attribute 23, 3
   8              		.eabi_attribute 24, 1
   9              		.eabi_attribute 25, 1
  10              		.eabi_attribute 26, 1
  11              		.eabi_attribute 30, 2
  12              		.eabi_attribute 34, 1
  13              		.eabi_attribute 18, 4
  14              		.thumb
  15              		.syntax unified
  16              		.file	"stm32f4xx_hal_msp.c"
  17              		.section	.text.HAL_MspInit,"ax",%progbits
  18              		.align	2
  19              		.global	HAL_MspInit
  20              		.thumb
  21              		.thumb_func
  23              	HAL_MspInit:
  24              		@ args = 0, pretend = 0, frame = 0
  25              		@ frame_needed = 0, uses_anonymous_args = 0
  26 0000 08B5     		push	{r3, lr}
  27 0002 0720     		movs	r0, #7
  28 0004 FFF7FEFF 		bl	HAL_NVIC_SetPriorityGrouping
  29 0008 0022     		movs	r2, #0
  30 000a 1146     		mov	r1, r2
  31 000c 6FF00B00 		mvn	r0, #11
  32 0010 FFF7FEFF 		bl	HAL_NVIC_SetPriority
  33 0014 0022     		movs	r2, #0
  34 0016 1146     		mov	r1, r2
  35 0018 6FF00A00 		mvn	r0, #10
  36 001c FFF7FEFF 		bl	HAL_NVIC_SetPriority
  37 0020 0022     		movs	r2, #0
  38 0022 1146     		mov	r1, r2
  39 0024 6FF00900 		mvn	r0, #9
  40 0028 FFF7FEFF 		bl	HAL_NVIC_SetPriority
  41 002c 0022     		movs	r2, #0
  42 002e 1146     		mov	r1, r2
  43 0030 6FF00400 		mvn	r0, #4
  44 0034 FFF7FEFF 		bl	HAL_NVIC_SetPriority
  45 0038 0022     		movs	r2, #0
  46 003a 1146     		mov	r1, r2
  47 003c 6FF00300 		mvn	r0, #3
  48 0040 FFF7FEFF 		bl	HAL_NVIC_SetPriority
  49 0044 0022     		movs	r2, #0
  50 0046 1146     		mov	r1, r2
  51 0048 6FF00100 		mvn	r0, #1
  52 004c FFF7FEFF 		bl	HAL_NVIC_SetPriority
  53 0050 0022     		movs	r2, #0
  54 0052 1146     		mov	r1, r2
  55 0054 4FF0FF30 		mov	r0, #-1
  56 0058 BDE80840 		pop	{r3, lr}
  57 005c FFF7FEBF 		b	HAL_NVIC_SetPriority
  59              		.section	.text.HAL_TIM_Base_MspInit,"ax",%progbits
ARM GAS  /tmp/ccuZJ4Yz.s 			page 2


  60              		.align	2
  61              		.global	HAL_TIM_Base_MspInit
  62              		.thumb
  63              		.thumb_func
  65              	HAL_TIM_Base_MspInit:
  66              		@ args = 0, pretend = 0, frame = 8
  67              		@ frame_needed = 0, uses_anonymous_args = 0
  68              		@ link register save eliminated.
  69 0000 0268     		ldr	r2, [r0]
  70 0002 0A4B     		ldr	r3, .L10
  71 0004 9A42     		cmp	r2, r3
  72 0006 00D0     		beq	.L9
  73 0008 7047     		bx	lr
  74              	.L9:
  75 000a 82B0     		sub	sp, sp, #8
  76 000c 03F50633 		add	r3, r3, #137216
  77 0010 0022     		movs	r2, #0
  78 0012 0192     		str	r2, [sp, #4]
  79 0014 1A6C     		ldr	r2, [r3, #64]
  80 0016 42F48072 		orr	r2, r2, #256
  81 001a 1A64     		str	r2, [r3, #64]
  82 001c 1B6C     		ldr	r3, [r3, #64]
  83 001e 03F48073 		and	r3, r3, #256
  84 0022 0193     		str	r3, [sp, #4]
  85 0024 019B     		ldr	r3, [sp, #4]
  86 0026 02B0     		add	sp, sp, #8
  87              		@ sp needed
  88 0028 7047     		bx	lr
  89              	.L11:
  90 002a 00BF     		.align	2
  91              	.L10:
  92 002c 00200040 		.word	1073750016
  94              		.section	.text.HAL_TIM_Base_MspDeInit,"ax",%progbits
  95              		.align	2
  96              		.global	HAL_TIM_Base_MspDeInit
  97              		.thumb
  98              		.thumb_func
 100              	HAL_TIM_Base_MspDeInit:
 101              		@ args = 0, pretend = 0, frame = 0
 102              		@ frame_needed = 0, uses_anonymous_args = 0
 103              		@ link register save eliminated.
 104 0000 0268     		ldr	r2, [r0]
 105 0002 054B     		ldr	r3, .L15
 106 0004 9A42     		cmp	r2, r3
 107 0006 00D0     		beq	.L14
 108 0008 7047     		bx	lr
 109              	.L14:
 110 000a 044A     		ldr	r2, .L15+4
 111 000c 136C     		ldr	r3, [r2, #64]
 112 000e 23F48073 		bic	r3, r3, #256
 113 0012 1364     		str	r3, [r2, #64]
 114 0014 7047     		bx	lr
 115              	.L16:
 116 0016 00BF     		.align	2
 117              	.L15:
 118 0018 00200040 		.word	1073750016
 119 001c 00380240 		.word	1073887232
ARM GAS  /tmp/ccuZJ4Yz.s 			page 3


 121              		.ident	"GCC: (GNU Tools for ARM Embedded Processors) 5.4.1 20160919 (release) [ARM/embedded-5-bran
ARM GAS  /tmp/ccuZJ4Yz.s 			page 4


DEFINED SYMBOLS
                            *ABS*:00000000 stm32f4xx_hal_msp.c
     /tmp/ccuZJ4Yz.s:18     .text.HAL_MspInit:00000000 $t
     /tmp/ccuZJ4Yz.s:23     .text.HAL_MspInit:00000000 HAL_MspInit
     /tmp/ccuZJ4Yz.s:60     .text.HAL_TIM_Base_MspInit:00000000 $t
     /tmp/ccuZJ4Yz.s:65     .text.HAL_TIM_Base_MspInit:00000000 HAL_TIM_Base_MspInit
     /tmp/ccuZJ4Yz.s:92     .text.HAL_TIM_Base_MspInit:0000002c $d
     /tmp/ccuZJ4Yz.s:95     .text.HAL_TIM_Base_MspDeInit:00000000 $t
     /tmp/ccuZJ4Yz.s:100    .text.HAL_TIM_Base_MspDeInit:00000000 HAL_TIM_Base_MspDeInit
     /tmp/ccuZJ4Yz.s:118    .text.HAL_TIM_Base_MspDeInit:00000018 $d

UNDEFINED SYMBOLS
HAL_NVIC_SetPriorityGrouping
HAL_NVIC_SetPriority
