ARM GAS  /tmp/ccQKoNDb.s 			page 1


   1              		.syntax unified
   2              		.cpu cortex-m4
   3              		.eabi_attribute 27, 1
   4              		.fpu fpv4-sp-d16
   5              		.eabi_attribute 20, 1
   6              		.eabi_attribute 21, 1
   7              		.eabi_attribute 23, 3
   8              		.eabi_attribute 24, 1
   9              		.eabi_attribute 25, 1
  10              		.eabi_attribute 26, 1
  11              		.eabi_attribute 30, 2
  12              		.eabi_attribute 34, 1
  13              		.eabi_attribute 18, 4
  14              		.thumb
  15              		.syntax unified
  16              		.file	"stm32f4xx_hal_pwr.c"
  17              		.section	.text.HAL_PWR_DeInit,"ax",%progbits
  18              		.align	2
  19              		.global	HAL_PWR_DeInit
  20              		.thumb
  21              		.thumb_func
  23              	HAL_PWR_DeInit:
  24              		@ args = 0, pretend = 0, frame = 0
  25              		@ frame_needed = 0, uses_anonymous_args = 0
  26              		@ link register save eliminated.
  27 0000 044B     		ldr	r3, .L2
  28 0002 1A6A     		ldr	r2, [r3, #32]
  29 0004 42F08052 		orr	r2, r2, #268435456
  30 0008 1A62     		str	r2, [r3, #32]
  31 000a 1A6A     		ldr	r2, [r3, #32]
  32 000c 22F08052 		bic	r2, r2, #268435456
  33 0010 1A62     		str	r2, [r3, #32]
  34 0012 7047     		bx	lr
  35              	.L3:
  36              		.align	2
  37              	.L2:
  38 0014 00380240 		.word	1073887232
  40              		.section	.text.HAL_PWR_EnableBkUpAccess,"ax",%progbits
  41              		.align	2
  42              		.global	HAL_PWR_EnableBkUpAccess
  43              		.thumb
  44              		.thumb_func
  46              	HAL_PWR_EnableBkUpAccess:
  47              		@ args = 0, pretend = 0, frame = 0
  48              		@ frame_needed = 0, uses_anonymous_args = 0
  49              		@ link register save eliminated.
  50 0000 4FF48073 		mov	r3, #256
  51              		.syntax unified
  52              	@ 531 "Drivers/CMSIS/Include/cmsis_gcc.h" 1
  53 0004 93FAA3F3 		rbit r3, r3
  54              	@ 0 "" 2
  55              		.thumb
  56              		.syntax unified
  57 0008 B3FA83F3 		clz	r3, r3
  58 000c 03F18453 		add	r3, r3, #276824064
  59 0010 03F56033 		add	r3, r3, #229376
  60 0014 9B00     		lsls	r3, r3, #2
ARM GAS  /tmp/ccQKoNDb.s 			page 2


  61 0016 0122     		movs	r2, #1
  62 0018 1A60     		str	r2, [r3]
  63 001a 7047     		bx	lr
  65              		.section	.text.HAL_PWR_DisableBkUpAccess,"ax",%progbits
  66              		.align	2
  67              		.global	HAL_PWR_DisableBkUpAccess
  68              		.thumb
  69              		.thumb_func
  71              	HAL_PWR_DisableBkUpAccess:
  72              		@ args = 0, pretend = 0, frame = 0
  73              		@ frame_needed = 0, uses_anonymous_args = 0
  74              		@ link register save eliminated.
  75 0000 4FF48073 		mov	r3, #256
  76              		.syntax unified
  77              	@ 531 "Drivers/CMSIS/Include/cmsis_gcc.h" 1
  78 0004 93FAA3F3 		rbit r3, r3
  79              	@ 0 "" 2
  80              		.thumb
  81              		.syntax unified
  82 0008 B3FA83F3 		clz	r3, r3
  83 000c 03F18453 		add	r3, r3, #276824064
  84 0010 03F56033 		add	r3, r3, #229376
  85 0014 9B00     		lsls	r3, r3, #2
  86 0016 0022     		movs	r2, #0
  87 0018 1A60     		str	r2, [r3]
  88 001a 7047     		bx	lr
  90              		.section	.text.HAL_PWR_ConfigPVD,"ax",%progbits
  91              		.align	2
  92              		.global	HAL_PWR_ConfigPVD
  93              		.thumb
  94              		.thumb_func
  96              	HAL_PWR_ConfigPVD:
  97              		@ args = 0, pretend = 0, frame = 0
  98              		@ frame_needed = 0, uses_anonymous_args = 0
  99              		@ link register save eliminated.
 100 0000 10B4     		push	{r4}
 101 0002 1B4C     		ldr	r4, .L25
 102 0004 1B4B     		ldr	r3, .L25+4
 103 0006 2268     		ldr	r2, [r4]
 104 0008 22F0E001 		bic	r1, r2, #224
 105 000c 0268     		ldr	r2, [r0]
 106 000e 0A43     		orrs	r2, r2, r1
 107 0010 2260     		str	r2, [r4]
 108 0012 5A68     		ldr	r2, [r3, #4]
 109 0014 22F48032 		bic	r2, r2, #65536
 110 0018 5A60     		str	r2, [r3, #4]
 111 001a 1A68     		ldr	r2, [r3]
 112 001c 22F48032 		bic	r2, r2, #65536
 113 0020 1A60     		str	r2, [r3]
 114 0022 9A68     		ldr	r2, [r3, #8]
 115 0024 22F48032 		bic	r2, r2, #65536
 116 0028 9A60     		str	r2, [r3, #8]
 117 002a DA68     		ldr	r2, [r3, #12]
 118 002c 22F48032 		bic	r2, r2, #65536
 119 0030 DA60     		str	r2, [r3, #12]
 120 0032 4268     		ldr	r2, [r0, #4]
 121 0034 D403     		lsls	r4, r2, #15
ARM GAS  /tmp/ccQKoNDb.s 			page 3


 122 0036 03D5     		bpl	.L7
 123 0038 1968     		ldr	r1, [r3]
 124 003a 41F48031 		orr	r1, r1, #65536
 125 003e 1960     		str	r1, [r3]
 126              	.L7:
 127 0040 9003     		lsls	r0, r2, #14
 128 0042 04D5     		bpl	.L8
 129 0044 0B49     		ldr	r1, .L25+4
 130 0046 4B68     		ldr	r3, [r1, #4]
 131 0048 43F48033 		orr	r3, r3, #65536
 132 004c 4B60     		str	r3, [r1, #4]
 133              	.L8:
 134 004e D107     		lsls	r1, r2, #31
 135 0050 04D5     		bpl	.L9
 136 0052 0849     		ldr	r1, .L25+4
 137 0054 8B68     		ldr	r3, [r1, #8]
 138 0056 43F48033 		orr	r3, r3, #65536
 139 005a 8B60     		str	r3, [r1, #8]
 140              	.L9:
 141 005c 9307     		lsls	r3, r2, #30
 142 005e 04D5     		bpl	.L6
 143 0060 044A     		ldr	r2, .L25+4
 144 0062 D368     		ldr	r3, [r2, #12]
 145 0064 43F48033 		orr	r3, r3, #65536
 146 0068 D360     		str	r3, [r2, #12]
 147              	.L6:
 148 006a 5DF8044B 		ldr	r4, [sp], #4
 149 006e 7047     		bx	lr
 150              	.L26:
 151              		.align	2
 152              	.L25:
 153 0070 00700040 		.word	1073770496
 154 0074 003C0140 		.word	1073822720
 156              		.section	.text.HAL_PWR_EnablePVD,"ax",%progbits
 157              		.align	2
 158              		.global	HAL_PWR_EnablePVD
 159              		.thumb
 160              		.thumb_func
 162              	HAL_PWR_EnablePVD:
 163              		@ args = 0, pretend = 0, frame = 0
 164              		@ frame_needed = 0, uses_anonymous_args = 0
 165              		@ link register save eliminated.
 166 0000 1023     		movs	r3, #16
 167              		.syntax unified
 168              	@ 531 "Drivers/CMSIS/Include/cmsis_gcc.h" 1
 169 0002 93FAA3F3 		rbit r3, r3
 170              	@ 0 "" 2
 171              		.thumb
 172              		.syntax unified
 173 0006 B3FA83F3 		clz	r3, r3
 174 000a 03F18453 		add	r3, r3, #276824064
 175 000e 03F56033 		add	r3, r3, #229376
 176 0012 9B00     		lsls	r3, r3, #2
 177 0014 0122     		movs	r2, #1
 178 0016 1A60     		str	r2, [r3]
 179 0018 7047     		bx	lr
 181 001a 00BF     		.section	.text.HAL_PWR_DisablePVD,"ax",%progbits
ARM GAS  /tmp/ccQKoNDb.s 			page 4


 182              		.align	2
 183              		.global	HAL_PWR_DisablePVD
 184              		.thumb
 185              		.thumb_func
 187              	HAL_PWR_DisablePVD:
 188              		@ args = 0, pretend = 0, frame = 0
 189              		@ frame_needed = 0, uses_anonymous_args = 0
 190              		@ link register save eliminated.
 191 0000 1023     		movs	r3, #16
 192              		.syntax unified
 193              	@ 531 "Drivers/CMSIS/Include/cmsis_gcc.h" 1
 194 0002 93FAA3F3 		rbit r3, r3
 195              	@ 0 "" 2
 196              		.thumb
 197              		.syntax unified
 198 0006 B3FA83F3 		clz	r3, r3
 199 000a 03F18453 		add	r3, r3, #276824064
 200 000e 03F56033 		add	r3, r3, #229376
 201 0012 9B00     		lsls	r3, r3, #2
 202 0014 0022     		movs	r2, #0
 203 0016 1A60     		str	r2, [r3]
 204 0018 7047     		bx	lr
 206 001a 00BF     		.section	.text.HAL_PWR_EnableWakeUpPin,"ax",%progbits
 207              		.align	2
 208              		.global	HAL_PWR_EnableWakeUpPin
 209              		.thumb
 210              		.thumb_func
 212              	HAL_PWR_EnableWakeUpPin:
 213              		@ args = 0, pretend = 0, frame = 0
 214              		@ frame_needed = 0, uses_anonymous_args = 0
 215              		@ link register save eliminated.
 216 0000 024A     		ldr	r2, .L30
 217 0002 5368     		ldr	r3, [r2, #4]
 218 0004 1843     		orrs	r0, r0, r3
 219 0006 5060     		str	r0, [r2, #4]
 220 0008 7047     		bx	lr
 221              	.L31:
 222 000a 00BF     		.align	2
 223              	.L30:
 224 000c 00700040 		.word	1073770496
 226              		.section	.text.HAL_PWR_DisableWakeUpPin,"ax",%progbits
 227              		.align	2
 228              		.global	HAL_PWR_DisableWakeUpPin
 229              		.thumb
 230              		.thumb_func
 232              	HAL_PWR_DisableWakeUpPin:
 233              		@ args = 0, pretend = 0, frame = 0
 234              		@ frame_needed = 0, uses_anonymous_args = 0
 235              		@ link register save eliminated.
 236 0000 024A     		ldr	r2, .L33
 237 0002 5368     		ldr	r3, [r2, #4]
 238 0004 23EA0000 		bic	r0, r3, r0
 239 0008 5060     		str	r0, [r2, #4]
 240 000a 7047     		bx	lr
 241              	.L34:
 242              		.align	2
 243              	.L33:
ARM GAS  /tmp/ccQKoNDb.s 			page 5


 244 000c 00700040 		.word	1073770496
 246              		.section	.text.HAL_PWR_EnterSLEEPMode,"ax",%progbits
 247              		.align	2
 248              		.global	HAL_PWR_EnterSLEEPMode
 249              		.thumb
 250              		.thumb_func
 252              	HAL_PWR_EnterSLEEPMode:
 253              		@ args = 0, pretend = 0, frame = 0
 254              		@ frame_needed = 0, uses_anonymous_args = 0
 255              		@ link register save eliminated.
 256 0000 064A     		ldr	r2, .L39
 257 0002 1369     		ldr	r3, [r2, #16]
 258 0004 0129     		cmp	r1, #1
 259 0006 23F00403 		bic	r3, r3, #4
 260 000a 1361     		str	r3, [r2, #16]
 261 000c 03D0     		beq	.L38
 262              		.syntax unified
 263              	@ 406 "Drivers/CMSIS/Include/cmsis_gcc.h" 1
 264 000e 40BF     		sev
 265              	@ 0 "" 2
 266              	@ 396 "Drivers/CMSIS/Include/cmsis_gcc.h" 1
 267 0010 20BF     		wfe
 268              	@ 0 "" 2
 269              	@ 396 "Drivers/CMSIS/Include/cmsis_gcc.h" 1
 270 0012 20BF     		wfe
 271              	@ 0 "" 2
 272              		.thumb
 273              		.syntax unified
 274 0014 7047     		bx	lr
 275              	.L38:
 276              		.syntax unified
 277              	@ 385 "Drivers/CMSIS/Include/cmsis_gcc.h" 1
 278 0016 30BF     		wfi
 279              	@ 0 "" 2
 280              		.thumb
 281              		.syntax unified
 282 0018 7047     		bx	lr
 283              	.L40:
 284 001a 00BF     		.align	2
 285              	.L39:
 286 001c 00ED00E0 		.word	-536810240
 288              		.section	.text.HAL_PWR_EnterSTOPMode,"ax",%progbits
 289              		.align	2
 290              		.global	HAL_PWR_EnterSTOPMode
 291              		.thumb
 292              		.thumb_func
 294              	HAL_PWR_EnterSTOPMode:
 295              		@ args = 0, pretend = 0, frame = 0
 296              		@ frame_needed = 0, uses_anonymous_args = 0
 297              		@ link register save eliminated.
 298 0000 10B4     		push	{r4}
 299 0002 0D4C     		ldr	r4, .L46
 300 0004 0D4A     		ldr	r2, .L46+4
 301 0006 2368     		ldr	r3, [r4]
 302 0008 23F00303 		bic	r3, r3, #3
 303 000c 1843     		orrs	r0, r0, r3
 304 000e 2060     		str	r0, [r4]
ARM GAS  /tmp/ccQKoNDb.s 			page 6


 305 0010 1369     		ldr	r3, [r2, #16]
 306 0012 0129     		cmp	r1, #1
 307 0014 43F00403 		orr	r3, r3, #4
 308 0018 1361     		str	r3, [r2, #16]
 309 001a 0AD0     		beq	.L45
 310              		.syntax unified
 311              	@ 406 "Drivers/CMSIS/Include/cmsis_gcc.h" 1
 312 001c 40BF     		sev
 313              	@ 0 "" 2
 314              	@ 396 "Drivers/CMSIS/Include/cmsis_gcc.h" 1
 315 001e 20BF     		wfe
 316              	@ 0 "" 2
 317              	@ 396 "Drivers/CMSIS/Include/cmsis_gcc.h" 1
 318 0020 20BF     		wfe
 319              	@ 0 "" 2
 320              		.thumb
 321              		.syntax unified
 322              	.L43:
 323 0022 064A     		ldr	r2, .L46+4
 324 0024 5DF8044B 		ldr	r4, [sp], #4
 325 0028 1369     		ldr	r3, [r2, #16]
 326 002a 23F00403 		bic	r3, r3, #4
 327 002e 1361     		str	r3, [r2, #16]
 328 0030 7047     		bx	lr
 329              	.L45:
 330              		.syntax unified
 331              	@ 385 "Drivers/CMSIS/Include/cmsis_gcc.h" 1
 332 0032 30BF     		wfi
 333              	@ 0 "" 2
 334              		.thumb
 335              		.syntax unified
 336 0034 F5E7     		b	.L43
 337              	.L47:
 338 0036 00BF     		.align	2
 339              	.L46:
 340 0038 00700040 		.word	1073770496
 341 003c 00ED00E0 		.word	-536810240
 343              		.section	.text.HAL_PWR_EnterSTANDBYMode,"ax",%progbits
 344              		.align	2
 345              		.global	HAL_PWR_EnterSTANDBYMode
 346              		.thumb
 347              		.thumb_func
 349              	HAL_PWR_EnterSTANDBYMode:
 350              		@ args = 0, pretend = 0, frame = 0
 351              		@ frame_needed = 0, uses_anonymous_args = 0
 352              		@ link register save eliminated.
 353 0000 0549     		ldr	r1, .L49
 354 0002 064A     		ldr	r2, .L49+4
 355 0004 0B68     		ldr	r3, [r1]
 356 0006 43F00203 		orr	r3, r3, #2
 357 000a 0B60     		str	r3, [r1]
 358 000c 1369     		ldr	r3, [r2, #16]
 359 000e 43F00403 		orr	r3, r3, #4
 360 0012 1361     		str	r3, [r2, #16]
 361              		.syntax unified
 362              	@ 385 "Drivers/CMSIS/Include/cmsis_gcc.h" 1
 363 0014 30BF     		wfi
ARM GAS  /tmp/ccQKoNDb.s 			page 7


 364              	@ 0 "" 2
 365              		.thumb
 366              		.syntax unified
 367 0016 7047     		bx	lr
 368              	.L50:
 369              		.align	2
 370              	.L49:
 371 0018 00700040 		.word	1073770496
 372 001c 00ED00E0 		.word	-536810240
 374              		.section	.text.HAL_PWR_PVDCallback,"ax",%progbits
 375              		.align	2
 376              		.weak	HAL_PWR_PVDCallback
 377              		.thumb
 378              		.thumb_func
 380              	HAL_PWR_PVDCallback:
 381              		@ args = 0, pretend = 0, frame = 0
 382              		@ frame_needed = 0, uses_anonymous_args = 0
 383              		@ link register save eliminated.
 384 0000 7047     		bx	lr
 386 0002 00BF     		.section	.text.HAL_PWR_PVD_IRQHandler,"ax",%progbits
 387              		.align	2
 388              		.global	HAL_PWR_PVD_IRQHandler
 389              		.thumb
 390              		.thumb_func
 392              	HAL_PWR_PVD_IRQHandler:
 393              		@ args = 0, pretend = 0, frame = 0
 394              		@ frame_needed = 0, uses_anonymous_args = 0
 395 0000 10B5     		push	{r4, lr}
 396 0002 054C     		ldr	r4, .L58
 397 0004 6369     		ldr	r3, [r4, #20]
 398 0006 DB03     		lsls	r3, r3, #15
 399 0008 04D5     		bpl	.L52
 400 000a FFF7FEFF 		bl	HAL_PWR_PVDCallback
 401 000e 4FF48033 		mov	r3, #65536
 402 0012 6361     		str	r3, [r4, #20]
 403              	.L52:
 404 0014 10BD     		pop	{r4, pc}
 405              	.L59:
 406 0016 00BF     		.align	2
 407              	.L58:
 408 0018 003C0140 		.word	1073822720
 410              		.section	.text.HAL_PWR_EnableSleepOnExit,"ax",%progbits
 411              		.align	2
 412              		.global	HAL_PWR_EnableSleepOnExit
 413              		.thumb
 414              		.thumb_func
 416              	HAL_PWR_EnableSleepOnExit:
 417              		@ args = 0, pretend = 0, frame = 0
 418              		@ frame_needed = 0, uses_anonymous_args = 0
 419              		@ link register save eliminated.
 420 0000 024A     		ldr	r2, .L61
 421 0002 1369     		ldr	r3, [r2, #16]
 422 0004 43F00203 		orr	r3, r3, #2
 423 0008 1361     		str	r3, [r2, #16]
 424 000a 7047     		bx	lr
 425              	.L62:
 426              		.align	2
ARM GAS  /tmp/ccQKoNDb.s 			page 8


 427              	.L61:
 428 000c 00ED00E0 		.word	-536810240
 430              		.section	.text.HAL_PWR_DisableSleepOnExit,"ax",%progbits
 431              		.align	2
 432              		.global	HAL_PWR_DisableSleepOnExit
 433              		.thumb
 434              		.thumb_func
 436              	HAL_PWR_DisableSleepOnExit:
 437              		@ args = 0, pretend = 0, frame = 0
 438              		@ frame_needed = 0, uses_anonymous_args = 0
 439              		@ link register save eliminated.
 440 0000 024A     		ldr	r2, .L64
 441 0002 1369     		ldr	r3, [r2, #16]
 442 0004 23F00203 		bic	r3, r3, #2
 443 0008 1361     		str	r3, [r2, #16]
 444 000a 7047     		bx	lr
 445              	.L65:
 446              		.align	2
 447              	.L64:
 448 000c 00ED00E0 		.word	-536810240
 450              		.section	.text.HAL_PWR_EnableSEVOnPend,"ax",%progbits
 451              		.align	2
 452              		.global	HAL_PWR_EnableSEVOnPend
 453              		.thumb
 454              		.thumb_func
 456              	HAL_PWR_EnableSEVOnPend:
 457              		@ args = 0, pretend = 0, frame = 0
 458              		@ frame_needed = 0, uses_anonymous_args = 0
 459              		@ link register save eliminated.
 460 0000 024A     		ldr	r2, .L67
 461 0002 1369     		ldr	r3, [r2, #16]
 462 0004 43F01003 		orr	r3, r3, #16
 463 0008 1361     		str	r3, [r2, #16]
 464 000a 7047     		bx	lr
 465              	.L68:
 466              		.align	2
 467              	.L67:
 468 000c 00ED00E0 		.word	-536810240
 470              		.section	.text.HAL_PWR_DisableSEVOnPend,"ax",%progbits
 471              		.align	2
 472              		.global	HAL_PWR_DisableSEVOnPend
 473              		.thumb
 474              		.thumb_func
 476              	HAL_PWR_DisableSEVOnPend:
 477              		@ args = 0, pretend = 0, frame = 0
 478              		@ frame_needed = 0, uses_anonymous_args = 0
 479              		@ link register save eliminated.
 480 0000 024A     		ldr	r2, .L70
 481 0002 1369     		ldr	r3, [r2, #16]
 482 0004 23F01003 		bic	r3, r3, #16
 483 0008 1361     		str	r3, [r2, #16]
 484 000a 7047     		bx	lr
 485              	.L71:
 486              		.align	2
 487              	.L70:
 488 000c 00ED00E0 		.word	-536810240
 490              		.ident	"GCC: (GNU Tools for ARM Embedded Processors) 5.4.1 20160919 (release) [ARM/embedded-5-bran
ARM GAS  /tmp/ccQKoNDb.s 			page 9


ARM GAS  /tmp/ccQKoNDb.s 			page 10

