ARM GAS  /tmp/ccPLMYtf.s 			page 1


   1              		.syntax unified
   2              		.cpu cortex-m4
   3              		.eabi_attribute 27, 1
   4              		.fpu fpv4-sp-d16
   5              		.eabi_attribute 20, 1
   6              		.eabi_attribute 21, 1
   7              		.eabi_attribute 23, 3
   8              		.eabi_attribute 24, 1
   9              		.eabi_attribute 25, 1
  10              		.eabi_attribute 26, 1
  11              		.eabi_attribute 30, 2
  12              		.eabi_attribute 34, 1
  13              		.eabi_attribute 18, 4
  14              		.thumb
  15              		.syntax unified
  16              		.file	"stm32f4xx_hal_flash.c"
  17              		.section	.text.FLASH_SetErrorCode,"ax",%progbits
  18              		.align	2
  19              		.thumb
  20              		.thumb_func
  22              	FLASH_SetErrorCode:
  23              		@ args = 0, pretend = 0, frame = 0
  24              		@ frame_needed = 0, uses_anonymous_args = 0
  25              		@ link register save eliminated.
  26 0000 214B     		ldr	r3, .L27
  27 0002 DA68     		ldr	r2, [r3, #12]
  28 0004 D006     		lsls	r0, r2, #27
  29 0006 05D5     		bpl	.L2
  30 0008 2049     		ldr	r1, .L27+4
  31 000a CA69     		ldr	r2, [r1, #28]
  32 000c 1020     		movs	r0, #16
  33 000e 0243     		orrs	r2, r2, r0
  34 0010 CA61     		str	r2, [r1, #28]
  35 0012 D860     		str	r0, [r3, #12]
  36              	.L2:
  37 0014 1C4B     		ldr	r3, .L27
  38 0016 DA68     		ldr	r2, [r3, #12]
  39 0018 9106     		lsls	r1, r2, #26
  40 001a 06D5     		bpl	.L3
  41 001c 1B49     		ldr	r1, .L27+4
  42 001e CA69     		ldr	r2, [r1, #28]
  43 0020 2020     		movs	r0, #32
  44 0022 42F00802 		orr	r2, r2, #8
  45 0026 CA61     		str	r2, [r1, #28]
  46 0028 D860     		str	r0, [r3, #12]
  47              	.L3:
  48 002a 174B     		ldr	r3, .L27
  49 002c DA68     		ldr	r2, [r3, #12]
  50 002e 5206     		lsls	r2, r2, #25
  51 0030 06D5     		bpl	.L4
  52 0032 1649     		ldr	r1, .L27+4
  53 0034 CA69     		ldr	r2, [r1, #28]
  54 0036 4020     		movs	r0, #64
  55 0038 42F00402 		orr	r2, r2, #4
  56 003c CA61     		str	r2, [r1, #28]
  57 003e D860     		str	r0, [r3, #12]
  58              	.L4:
ARM GAS  /tmp/ccPLMYtf.s 			page 2


  59 0040 114B     		ldr	r3, .L27
  60 0042 DA68     		ldr	r2, [r3, #12]
  61 0044 1006     		lsls	r0, r2, #24
  62 0046 06D5     		bpl	.L5
  63 0048 1049     		ldr	r1, .L27+4
  64 004a CA69     		ldr	r2, [r1, #28]
  65 004c 8020     		movs	r0, #128
  66 004e 42F00202 		orr	r2, r2, #2
  67 0052 CA61     		str	r2, [r1, #28]
  68 0054 D860     		str	r0, [r3, #12]
  69              	.L5:
  70 0056 0C4B     		ldr	r3, .L27
  71 0058 DA68     		ldr	r2, [r3, #12]
  72 005a D105     		lsls	r1, r2, #23
  73 005c 07D5     		bpl	.L6
  74 005e 0B49     		ldr	r1, .L27+4
  75 0060 CA69     		ldr	r2, [r1, #28]
  76 0062 4FF48070 		mov	r0, #256
  77 0066 42F00102 		orr	r2, r2, #1
  78 006a CA61     		str	r2, [r1, #28]
  79 006c D860     		str	r0, [r3, #12]
  80              	.L6:
  81 006e 064B     		ldr	r3, .L27
  82 0070 DA68     		ldr	r2, [r3, #12]
  83 0072 9207     		lsls	r2, r2, #30
  84 0074 06D5     		bpl	.L1
  85 0076 0549     		ldr	r1, .L27+4
  86 0078 CA69     		ldr	r2, [r1, #28]
  87 007a 0220     		movs	r0, #2
  88 007c 42F02002 		orr	r2, r2, #32
  89 0080 CA61     		str	r2, [r1, #28]
  90 0082 D860     		str	r0, [r3, #12]
  91              	.L1:
  92 0084 7047     		bx	lr
  93              	.L28:
  94 0086 00BF     		.align	2
  95              	.L27:
  96 0088 003C0240 		.word	1073888256
  97 008c 00000000 		.word	pFlash
  99              		.section	.text.HAL_FLASH_Program_IT,"ax",%progbits
 100              		.align	2
 101              		.global	HAL_FLASH_Program_IT
 102              		.thumb
 103              		.thumb_func
 105              	HAL_FLASH_Program_IT:
 106              		@ args = 0, pretend = 0, frame = 0
 107              		@ frame_needed = 0, uses_anonymous_args = 0
 108 0000 F0B5     		push	{r4, r5, r6, r7, lr}
 109 0002 254C     		ldr	r4, .L39
 110 0004 257E     		ldrb	r5, [r4, #24]	@ zero_extendqisi2
 111 0006 012D     		cmp	r5, #1
 112 0008 2ED0     		beq	.L34
 113 000a 1F46     		mov	r7, r3
 114 000c 234B     		ldr	r3, .L39+4
 115 000e 1646     		mov	r6, r2
 116 0010 1A69     		ldr	r2, [r3, #16]
 117 0012 42F08072 		orr	r2, r2, #16777216
ARM GAS  /tmp/ccPLMYtf.s 			page 3


 118 0016 1A61     		str	r2, [r3, #16]
 119 0018 1D69     		ldr	r5, [r3, #16]
 120 001a 4FF0030E 		mov	lr, #3
 121 001e 45F00075 		orr	r5, r5, #33554432
 122 0022 1D61     		str	r5, [r3, #16]
 123 0024 0122     		movs	r2, #1
 124 0026 84F800E0 		strb	lr, [r4]
 125 002a 6161     		str	r1, [r4, #20]
 126 002c 2276     		strb	r2, [r4, #24]
 127 002e 1A69     		ldr	r2, [r3, #16]
 128 0030 22F44072 		bic	r2, r2, #768
 129 0034 1A61     		str	r2, [r3, #16]
 130 0036 1A69     		ldr	r2, [r3, #16]
 131 0038 70B1     		cbz	r0, .L36
 132 003a 0128     		cmp	r0, #1
 133 003c 16D0     		beq	.L37
 134 003e 0228     		cmp	r0, #2
 135 0040 1FD0     		beq	.L38
 136 0042 42F44072 		orr	r2, r2, #768
 137 0046 1A61     		str	r2, [r3, #16]
 138 0048 1A69     		ldr	r2, [r3, #16]
 139 004a 42F00102 		orr	r2, r2, #1
 140 004e 1A61     		str	r2, [r3, #16]
 141 0050 0020     		movs	r0, #0
 142 0052 C1E90067 		strd	r6, [r1]
 143 0056 F0BD     		pop	{r4, r5, r6, r7, pc}
 144              	.L36:
 145 0058 1A61     		str	r2, [r3, #16]
 146 005a 1C69     		ldr	r4, [r3, #16]
 147 005c F6B2     		uxtb	r6, r6
 148 005e 44F00104 		orr	r4, r4, #1
 149 0062 1C61     		str	r4, [r3, #16]
 150 0064 0E70     		strb	r6, [r1]
 151 0066 F0BD     		pop	{r4, r5, r6, r7, pc}
 152              	.L34:
 153 0068 0220     		movs	r0, #2
 154 006a F0BD     		pop	{r4, r5, r6, r7, pc}
 155              	.L37:
 156 006c 42F48072 		orr	r2, r2, #256
 157 0070 1A61     		str	r2, [r3, #16]
 158 0072 1869     		ldr	r0, [r3, #16]
 159 0074 B6B2     		uxth	r6, r6
 160 0076 40F00100 		orr	r0, r0, #1
 161 007a 1861     		str	r0, [r3, #16]
 162 007c 0020     		movs	r0, #0
 163 007e 0E80     		strh	r6, [r1]	@ movhi
 164 0080 F0BD     		pop	{r4, r5, r6, r7, pc}
 165              	.L38:
 166 0082 42F40072 		orr	r2, r2, #512
 167 0086 1A61     		str	r2, [r3, #16]
 168 0088 1A69     		ldr	r2, [r3, #16]
 169 008a 42F00102 		orr	r2, r2, #1
 170 008e 1A61     		str	r2, [r3, #16]
 171 0090 0020     		movs	r0, #0
 172 0092 0E60     		str	r6, [r1]
 173 0094 F0BD     		pop	{r4, r5, r6, r7, pc}
 174              	.L40:
ARM GAS  /tmp/ccPLMYtf.s 			page 4


 175 0096 00BF     		.align	2
 176              	.L39:
 177 0098 00000000 		.word	pFlash
 178 009c 003C0240 		.word	1073888256
 180              		.section	.text.HAL_FLASH_EndOfOperationCallback,"ax",%progbits
 181              		.align	2
 182              		.weak	HAL_FLASH_EndOfOperationCallback
 183              		.thumb
 184              		.thumb_func
 186              	HAL_FLASH_EndOfOperationCallback:
 187              		@ args = 0, pretend = 0, frame = 0
 188              		@ frame_needed = 0, uses_anonymous_args = 0
 189              		@ link register save eliminated.
 190 0000 7047     		bx	lr
 192 0002 00BF     		.section	.text.HAL_FLASH_OperationErrorCallback,"ax",%progbits
 193              		.align	2
 194              		.weak	HAL_FLASH_OperationErrorCallback
 195              		.thumb
 196              		.thumb_func
 198              	HAL_FLASH_OperationErrorCallback:
 199              		@ args = 0, pretend = 0, frame = 0
 200              		@ frame_needed = 0, uses_anonymous_args = 0
 201              		@ link register save eliminated.
 202 0000 7047     		bx	lr
 204 0002 00BF     		.section	.text.HAL_FLASH_IRQHandler,"ax",%progbits
 205              		.align	2
 206              		.global	HAL_FLASH_IRQHandler
 207              		.thumb
 208              		.thumb_func
 210              	HAL_FLASH_IRQHandler:
 211              		@ args = 0, pretend = 0, frame = 0
 212              		@ frame_needed = 0, uses_anonymous_args = 0
 213 0000 304B     		ldr	r3, .L64
 214 0002 DB68     		ldr	r3, [r3, #12]
 215 0004 13F4F97F 		tst	r3, #498
 216 0008 70B5     		push	{r4, r5, r6, lr}
 217 000a 2F4C     		ldr	r4, .L64+4
 218 000c 0ED0     		beq	.L44
 219 000e 2378     		ldrb	r3, [r4]	@ zero_extendqisi2
 220 0010 012B     		cmp	r3, #1
 221 0012 41D0     		beq	.L61
 222 0014 2378     		ldrb	r3, [r4]	@ zero_extendqisi2
 223 0016 022B     		cmp	r3, #2
 224 0018 0CBF     		ite	eq
 225 001a 2569     		ldreq	r5, [r4, #16]
 226 001c 6569     		ldrne	r5, [r4, #20]
 227              	.L46:
 228 001e FFF7FEFF 		bl	FLASH_SetErrorCode
 229 0022 2846     		mov	r0, r5
 230 0024 FFF7FEFF 		bl	HAL_FLASH_OperationErrorCallback
 231 0028 0023     		movs	r3, #0
 232 002a 2370     		strb	r3, [r4]
 233              	.L44:
 234 002c 254B     		ldr	r3, .L64
 235 002e DA68     		ldr	r2, [r3, #12]
 236 0030 D207     		lsls	r2, r2, #31
 237 0032 0DD5     		bpl	.L48
ARM GAS  /tmp/ccPLMYtf.s 			page 5


 238 0034 0122     		movs	r2, #1
 239 0036 DA60     		str	r2, [r3, #12]
 240 0038 2378     		ldrb	r3, [r4]	@ zero_extendqisi2
 241 003a 234D     		ldr	r5, .L64+4
 242 003c 9342     		cmp	r3, r2
 243 003e 1BD0     		beq	.L62
 244 0040 2B78     		ldrb	r3, [r5]	@ zero_extendqisi2
 245 0042 022B     		cmp	r3, #2
 246 0044 2DD0     		beq	.L63
 247 0046 6869     		ldr	r0, [r5, #20]
 248 0048 FFF7FEFF 		bl	HAL_FLASH_EndOfOperationCallback
 249              	.L52:
 250 004c 0023     		movs	r3, #0
 251 004e 2370     		strb	r3, [r4]
 252              	.L48:
 253 0050 2378     		ldrb	r3, [r4]	@ zero_extendqisi2
 254 0052 1D4A     		ldr	r2, .L64+4
 255 0054 03F0FF01 		and	r1, r3, #255
 256 0058 6BB9     		cbnz	r3, .L43
 257 005a 1A4B     		ldr	r3, .L64
 258 005c 1176     		strb	r1, [r2, #24]
 259 005e 1A69     		ldr	r2, [r3, #16]
 260 0060 22F0FF02 		bic	r2, r2, #255
 261 0064 1A61     		str	r2, [r3, #16]
 262 0066 1A69     		ldr	r2, [r3, #16]
 263 0068 22F08072 		bic	r2, r2, #16777216
 264 006c 1A61     		str	r2, [r3, #16]
 265 006e 1A69     		ldr	r2, [r3, #16]
 266 0070 22F00072 		bic	r2, r2, #33554432
 267 0074 1A61     		str	r2, [r3, #16]
 268              	.L43:
 269 0076 70BD     		pop	{r4, r5, r6, pc}
 270              	.L62:
 271 0078 6B68     		ldr	r3, [r5, #4]
 272 007a 013B     		subs	r3, r3, #1
 273 007c 6B60     		str	r3, [r5, #4]
 274 007e 6B68     		ldr	r3, [r5, #4]
 275 0080 ABB1     		cbz	r3, .L50
 276 0082 E868     		ldr	r0, [r5, #12]
 277 0084 FFF7FEFF 		bl	HAL_FLASH_EndOfOperationCallback
 278 0088 EB68     		ldr	r3, [r5, #12]
 279 008a 0133     		adds	r3, r3, #1
 280 008c EB60     		str	r3, [r5, #12]
 281 008e E868     		ldr	r0, [r5, #12]
 282 0090 297A     		ldrb	r1, [r5, #8]	@ zero_extendqisi2
 283 0092 FFF7FEFF 		bl	FLASH_Erase_Sector
 284 0096 DBE7     		b	.L48
 285              	.L61:
 286 0098 4FF0FF33 		mov	r3, #-1
 287 009c E568     		ldr	r5, [r4, #12]
 288 009e E360     		str	r3, [r4, #12]
 289 00a0 BDE7     		b	.L46
 290              	.L63:
 291 00a2 FFF7FEFF 		bl	FLASH_FlushCaches
 292 00a6 2869     		ldr	r0, [r5, #16]
 293 00a8 FFF7FEFF 		bl	HAL_FLASH_EndOfOperationCallback
 294 00ac CEE7     		b	.L52
ARM GAS  /tmp/ccPLMYtf.s 			page 6


 295              	.L50:
 296 00ae 4FF0FF36 		mov	r6, #-1
 297 00b2 EE60     		str	r6, [r5, #12]
 298 00b4 2B70     		strb	r3, [r5]
 299 00b6 FFF7FEFF 		bl	FLASH_FlushCaches
 300 00ba 3046     		mov	r0, r6
 301 00bc FFF7FEFF 		bl	HAL_FLASH_EndOfOperationCallback
 302 00c0 C6E7     		b	.L48
 303              	.L65:
 304 00c2 00BF     		.align	2
 305              	.L64:
 306 00c4 003C0240 		.word	1073888256
 307 00c8 00000000 		.word	pFlash
 309              		.section	.text.HAL_FLASH_Unlock,"ax",%progbits
 310              		.align	2
 311              		.global	HAL_FLASH_Unlock
 312              		.thumb
 313              		.thumb_func
 315              	HAL_FLASH_Unlock:
 316              		@ args = 0, pretend = 0, frame = 0
 317              		@ frame_needed = 0, uses_anonymous_args = 0
 318              		@ link register save eliminated.
 319 0000 054B     		ldr	r3, .L70
 320 0002 1A69     		ldr	r2, [r3, #16]
 321 0004 002A     		cmp	r2, #0
 322 0006 01DB     		blt	.L69
 323 0008 0120     		movs	r0, #1
 324 000a 7047     		bx	lr
 325              	.L69:
 326 000c 0349     		ldr	r1, .L70+4
 327 000e 044A     		ldr	r2, .L70+8
 328 0010 5960     		str	r1, [r3, #4]
 329 0012 0020     		movs	r0, #0
 330 0014 5A60     		str	r2, [r3, #4]
 331 0016 7047     		bx	lr
 332              	.L71:
 333              		.align	2
 334              	.L70:
 335 0018 003C0240 		.word	1073888256
 336 001c 23016745 		.word	1164378403
 337 0020 AB89EFCD 		.word	-839939669
 339              		.section	.text.HAL_FLASH_Lock,"ax",%progbits
 340              		.align	2
 341              		.global	HAL_FLASH_Lock
 342              		.thumb
 343              		.thumb_func
 345              	HAL_FLASH_Lock:
 346              		@ args = 0, pretend = 0, frame = 0
 347              		@ frame_needed = 0, uses_anonymous_args = 0
 348              		@ link register save eliminated.
 349 0000 034A     		ldr	r2, .L73
 350 0002 1369     		ldr	r3, [r2, #16]
 351 0004 43F00043 		orr	r3, r3, #-2147483648
 352 0008 1361     		str	r3, [r2, #16]
 353 000a 0020     		movs	r0, #0
 354 000c 7047     		bx	lr
 355              	.L74:
ARM GAS  /tmp/ccPLMYtf.s 			page 7


 356 000e 00BF     		.align	2
 357              	.L73:
 358 0010 003C0240 		.word	1073888256
 360              		.section	.text.HAL_FLASH_OB_Unlock,"ax",%progbits
 361              		.align	2
 362              		.global	HAL_FLASH_OB_Unlock
 363              		.thumb
 364              		.thumb_func
 366              	HAL_FLASH_OB_Unlock:
 367              		@ args = 0, pretend = 0, frame = 0
 368              		@ frame_needed = 0, uses_anonymous_args = 0
 369              		@ link register save eliminated.
 370 0000 054B     		ldr	r3, .L78
 371 0002 5A69     		ldr	r2, [r3, #20]
 372 0004 D207     		lsls	r2, r2, #31
 373 0006 05D5     		bpl	.L77
 374 0008 0449     		ldr	r1, .L78+4
 375 000a 054A     		ldr	r2, .L78+8
 376 000c 9960     		str	r1, [r3, #8]
 377 000e 0020     		movs	r0, #0
 378 0010 9A60     		str	r2, [r3, #8]
 379 0012 7047     		bx	lr
 380              	.L77:
 381 0014 0120     		movs	r0, #1
 382 0016 7047     		bx	lr
 383              	.L79:
 384              		.align	2
 385              	.L78:
 386 0018 003C0240 		.word	1073888256
 387 001c 3B2A1908 		.word	135866939
 388 0020 7F6E5D4C 		.word	1281191551
 390              		.section	.text.HAL_FLASH_OB_Lock,"ax",%progbits
 391              		.align	2
 392              		.global	HAL_FLASH_OB_Lock
 393              		.thumb
 394              		.thumb_func
 396              	HAL_FLASH_OB_Lock:
 397              		@ args = 0, pretend = 0, frame = 0
 398              		@ frame_needed = 0, uses_anonymous_args = 0
 399              		@ link register save eliminated.
 400 0000 034A     		ldr	r2, .L81
 401 0002 5369     		ldr	r3, [r2, #20]
 402 0004 43F00103 		orr	r3, r3, #1
 403 0008 5361     		str	r3, [r2, #20]
 404 000a 0020     		movs	r0, #0
 405 000c 7047     		bx	lr
 406              	.L82:
 407 000e 00BF     		.align	2
 408              	.L81:
 409 0010 003C0240 		.word	1073888256
 411              		.section	.text.HAL_FLASH_GetError,"ax",%progbits
 412              		.align	2
 413              		.global	HAL_FLASH_GetError
 414              		.thumb
 415              		.thumb_func
 417              	HAL_FLASH_GetError:
 418              		@ args = 0, pretend = 0, frame = 0
ARM GAS  /tmp/ccPLMYtf.s 			page 8


 419              		@ frame_needed = 0, uses_anonymous_args = 0
 420              		@ link register save eliminated.
 421 0000 014B     		ldr	r3, .L84
 422 0002 D869     		ldr	r0, [r3, #28]
 423 0004 7047     		bx	lr
 424              	.L85:
 425 0006 00BF     		.align	2
 426              	.L84:
 427 0008 00000000 		.word	pFlash
 429              		.section	.text.FLASH_WaitForLastOperation,"ax",%progbits
 430              		.align	2
 431              		.global	FLASH_WaitForLastOperation
 432              		.thumb
 433              		.thumb_func
 435              	FLASH_WaitForLastOperation:
 436              		@ args = 0, pretend = 0, frame = 0
 437              		@ frame_needed = 0, uses_anonymous_args = 0
 438 0000 124B     		ldr	r3, .L102
 439 0002 70B5     		push	{r4, r5, r6, lr}
 440 0004 0022     		movs	r2, #0
 441 0006 0446     		mov	r4, r0
 442 0008 DA61     		str	r2, [r3, #28]
 443 000a FFF7FEFF 		bl	HAL_GetTick
 444 000e 104D     		ldr	r5, .L102+4
 445 0010 0646     		mov	r6, r0
 446 0012 01E0     		b	.L88
 447              	.L92:
 448 0014 601C     		adds	r0, r4, #1
 449 0016 11D1     		bne	.L101
 450              	.L88:
 451 0018 EB68     		ldr	r3, [r5, #12]
 452 001a 0D4A     		ldr	r2, .L102+4
 453 001c D903     		lsls	r1, r3, #15
 454 001e F9D4     		bmi	.L92
 455 0020 D368     		ldr	r3, [r2, #12]
 456 0022 DB07     		lsls	r3, r3, #31
 457 0024 44BF     		itt	mi
 458 0026 0123     		movmi	r3, #1
 459 0028 D360     		strmi	r3, [r2, #12]
 460 002a 094B     		ldr	r3, .L102+4
 461 002c DB68     		ldr	r3, [r3, #12]
 462 002e 13F4F970 		ands	r0, r3, #498
 463 0032 02D0     		beq	.L90
 464 0034 FFF7FEFF 		bl	FLASH_SetErrorCode
 465 0038 0120     		movs	r0, #1
 466              	.L90:
 467 003a 70BD     		pop	{r4, r5, r6, pc}
 468              	.L101:
 469 003c 24B1     		cbz	r4, .L91
 470 003e FFF7FEFF 		bl	HAL_GetTick
 471 0042 801B     		subs	r0, r0, r6
 472 0044 8442     		cmp	r4, r0
 473 0046 E7D2     		bcs	.L88
 474              	.L91:
 475 0048 0320     		movs	r0, #3
 476 004a 70BD     		pop	{r4, r5, r6, pc}
 477              	.L103:
ARM GAS  /tmp/ccPLMYtf.s 			page 9


 478              		.align	2
 479              	.L102:
 480 004c 00000000 		.word	pFlash
 481 0050 003C0240 		.word	1073888256
 483              		.section	.text.HAL_FLASH_Program,"ax",%progbits
 484              		.align	2
 485              		.global	HAL_FLASH_Program
 486              		.thumb
 487              		.thumb_func
 489              	HAL_FLASH_Program:
 490              		@ args = 0, pretend = 0, frame = 0
 491              		@ frame_needed = 0, uses_anonymous_args = 0
 492 0000 2DE9F041 		push	{r4, r5, r6, r7, r8, lr}
 493 0004 284C     		ldr	r4, .L116
 494 0006 257E     		ldrb	r5, [r4, #24]	@ zero_extendqisi2
 495 0008 012D     		cmp	r5, #1
 496 000a 02D1     		bne	.L113
 497 000c 0220     		movs	r0, #2
 498 000e BDE8F081 		pop	{r4, r5, r6, r7, r8, pc}
 499              	.L113:
 500 0012 1F46     		mov	r7, r3
 501 0014 0546     		mov	r5, r0
 502 0016 0123     		movs	r3, #1
 503 0018 4CF25030 		movw	r0, #50000
 504 001c 1646     		mov	r6, r2
 505 001e 8846     		mov	r8, r1
 506 0020 2376     		strb	r3, [r4, #24]
 507 0022 FFF7FEFF 		bl	FLASH_WaitForLastOperation
 508 0026 B8B9     		cbnz	r0, .L106
 509 0028 204B     		ldr	r3, .L116+4
 510 002a 1A69     		ldr	r2, [r3, #16]
 511 002c 22F44072 		bic	r2, r2, #768
 512 0030 1A61     		str	r2, [r3, #16]
 513 0032 1A69     		ldr	r2, [r3, #16]
 514 0034 A5B9     		cbnz	r5, .L107
 515 0036 1A61     		str	r2, [r3, #16]
 516 0038 1969     		ldr	r1, [r3, #16]
 517 003a F6B2     		uxtb	r6, r6
 518 003c 41F00101 		orr	r1, r1, #1
 519 0040 1961     		str	r1, [r3, #16]
 520 0042 88F80060 		strb	r6, [r8]
 521              	.L108:
 522 0046 4CF25030 		movw	r0, #50000
 523 004a FFF7FEFF 		bl	FLASH_WaitForLastOperation
 524 004e 174A     		ldr	r2, .L116+4
 525 0050 1369     		ldr	r3, [r2, #16]
 526 0052 23F00103 		bic	r3, r3, #1
 527 0056 1361     		str	r3, [r2, #16]
 528              	.L106:
 529 0058 0023     		movs	r3, #0
 530 005a 2376     		strb	r3, [r4, #24]
 531 005c BDE8F081 		pop	{r4, r5, r6, r7, r8, pc}
 532              	.L107:
 533 0060 012D     		cmp	r5, #1
 534 0062 15D0     		beq	.L114
 535 0064 022D     		cmp	r5, #2
 536 0066 09D0     		beq	.L115
ARM GAS  /tmp/ccPLMYtf.s 			page 10


 537 0068 42F44072 		orr	r2, r2, #768
 538 006c 1A61     		str	r2, [r3, #16]
 539 006e 1A69     		ldr	r2, [r3, #16]
 540 0070 42F00102 		orr	r2, r2, #1
 541 0074 1A61     		str	r2, [r3, #16]
 542 0076 C8E90067 		strd	r6, [r8]
 543 007a E4E7     		b	.L108
 544              	.L115:
 545 007c 42F40072 		orr	r2, r2, #512
 546 0080 1A61     		str	r2, [r3, #16]
 547 0082 1A69     		ldr	r2, [r3, #16]
 548 0084 42F00102 		orr	r2, r2, #1
 549 0088 1A61     		str	r2, [r3, #16]
 550 008a C8F80060 		str	r6, [r8]
 551 008e DAE7     		b	.L108
 552              	.L114:
 553 0090 42F48072 		orr	r2, r2, #256
 554 0094 1A61     		str	r2, [r3, #16]
 555 0096 1969     		ldr	r1, [r3, #16]
 556 0098 B6B2     		uxth	r6, r6
 557 009a 41F00101 		orr	r1, r1, #1
 558 009e 1961     		str	r1, [r3, #16]
 559 00a0 A8F80060 		strh	r6, [r8]	@ movhi
 560 00a4 CFE7     		b	.L108
 561              	.L117:
 562 00a6 00BF     		.align	2
 563              	.L116:
 564 00a8 00000000 		.word	pFlash
 565 00ac 003C0240 		.word	1073888256
 567              		.section	.text.HAL_FLASH_OB_Launch,"ax",%progbits
 568              		.align	2
 569              		.global	HAL_FLASH_OB_Launch
 570              		.thumb
 571              		.thumb_func
 573              	HAL_FLASH_OB_Launch:
 574              		@ args = 0, pretend = 0, frame = 0
 575              		@ frame_needed = 0, uses_anonymous_args = 0
 576              		@ link register save eliminated.
 577 0000 044A     		ldr	r2, .L119
 578 0002 1378     		ldrb	r3, [r2]	@ zero_extendqisi2
 579 0004 43F00203 		orr	r3, r3, #2
 580 0008 1370     		strb	r3, [r2]
 581 000a 4CF25030 		movw	r0, #50000
 582 000e FFF7FEBF 		b	FLASH_WaitForLastOperation
 583              	.L120:
 584 0012 00BF     		.align	2
 585              	.L119:
 586 0014 143C0240 		.word	1073888276
 588              		.comm	pFlash,32,4
 589              		.ident	"GCC: (GNU Tools for ARM Embedded Processors) 5.4.1 20160919 (release) [ARM/embedded-5-bran
ARM GAS  /tmp/ccPLMYtf.s 			page 11


DEFINED SYMBOLS
                            *ABS*:00000000 stm32f4xx_hal_flash.c
     /tmp/ccPLMYtf.s:18     .text.FLASH_SetErrorCode:00000000 $t
     /tmp/ccPLMYtf.s:22     .text.FLASH_SetErrorCode:00000000 FLASH_SetErrorCode
     /tmp/ccPLMYtf.s:96     .text.FLASH_SetErrorCode:00000088 $d
                            *COM*:00000020 pFlash
     /tmp/ccPLMYtf.s:100    .text.HAL_FLASH_Program_IT:00000000 $t
     /tmp/ccPLMYtf.s:105    .text.HAL_FLASH_Program_IT:00000000 HAL_FLASH_Program_IT
     /tmp/ccPLMYtf.s:177    .text.HAL_FLASH_Program_IT:00000098 $d
     /tmp/ccPLMYtf.s:181    .text.HAL_FLASH_EndOfOperationCallback:00000000 $t
     /tmp/ccPLMYtf.s:186    .text.HAL_FLASH_EndOfOperationCallback:00000000 HAL_FLASH_EndOfOperationCallback
     /tmp/ccPLMYtf.s:193    .text.HAL_FLASH_OperationErrorCallback:00000000 $t
     /tmp/ccPLMYtf.s:198    .text.HAL_FLASH_OperationErrorCallback:00000000 HAL_FLASH_OperationErrorCallback
     /tmp/ccPLMYtf.s:205    .text.HAL_FLASH_IRQHandler:00000000 $t
     /tmp/ccPLMYtf.s:210    .text.HAL_FLASH_IRQHandler:00000000 HAL_FLASH_IRQHandler
     /tmp/ccPLMYtf.s:306    .text.HAL_FLASH_IRQHandler:000000c4 $d
     /tmp/ccPLMYtf.s:310    .text.HAL_FLASH_Unlock:00000000 $t
     /tmp/ccPLMYtf.s:315    .text.HAL_FLASH_Unlock:00000000 HAL_FLASH_Unlock
     /tmp/ccPLMYtf.s:335    .text.HAL_FLASH_Unlock:00000018 $d
     /tmp/ccPLMYtf.s:340    .text.HAL_FLASH_Lock:00000000 $t
     /tmp/ccPLMYtf.s:345    .text.HAL_FLASH_Lock:00000000 HAL_FLASH_Lock
     /tmp/ccPLMYtf.s:358    .text.HAL_FLASH_Lock:00000010 $d
     /tmp/ccPLMYtf.s:361    .text.HAL_FLASH_OB_Unlock:00000000 $t
     /tmp/ccPLMYtf.s:366    .text.HAL_FLASH_OB_Unlock:00000000 HAL_FLASH_OB_Unlock
     /tmp/ccPLMYtf.s:386    .text.HAL_FLASH_OB_Unlock:00000018 $d
     /tmp/ccPLMYtf.s:391    .text.HAL_FLASH_OB_Lock:00000000 $t
     /tmp/ccPLMYtf.s:396    .text.HAL_FLASH_OB_Lock:00000000 HAL_FLASH_OB_Lock
     /tmp/ccPLMYtf.s:409    .text.HAL_FLASH_OB_Lock:00000010 $d
     /tmp/ccPLMYtf.s:412    .text.HAL_FLASH_GetError:00000000 $t
     /tmp/ccPLMYtf.s:417    .text.HAL_FLASH_GetError:00000000 HAL_FLASH_GetError
     /tmp/ccPLMYtf.s:427    .text.HAL_FLASH_GetError:00000008 $d
     /tmp/ccPLMYtf.s:430    .text.FLASH_WaitForLastOperation:00000000 $t
     /tmp/ccPLMYtf.s:435    .text.FLASH_WaitForLastOperation:00000000 FLASH_WaitForLastOperation
     /tmp/ccPLMYtf.s:480    .text.FLASH_WaitForLastOperation:0000004c $d
     /tmp/ccPLMYtf.s:484    .text.HAL_FLASH_Program:00000000 $t
     /tmp/ccPLMYtf.s:489    .text.HAL_FLASH_Program:00000000 HAL_FLASH_Program
     /tmp/ccPLMYtf.s:564    .text.HAL_FLASH_Program:000000a8 $d
     /tmp/ccPLMYtf.s:568    .text.HAL_FLASH_OB_Launch:00000000 $t
     /tmp/ccPLMYtf.s:573    .text.HAL_FLASH_OB_Launch:00000000 HAL_FLASH_OB_Launch
     /tmp/ccPLMYtf.s:586    .text.HAL_FLASH_OB_Launch:00000014 $d

UNDEFINED SYMBOLS
FLASH_Erase_Sector
FLASH_FlushCaches
HAL_GetTick
