ARM GAS  /tmp/ccXDD4tW.s 			page 1


   1              		.syntax unified
   2              		.cpu cortex-m4
   3              		.eabi_attribute 27, 1
   4              		.fpu fpv4-sp-d16
   5              		.eabi_attribute 20, 1
   6              		.eabi_attribute 21, 1
   7              		.eabi_attribute 23, 3
   8              		.eabi_attribute 24, 1
   9              		.eabi_attribute 25, 1
  10              		.eabi_attribute 26, 1
  11              		.eabi_attribute 30, 2
  12              		.eabi_attribute 34, 1
  13              		.eabi_attribute 18, 4
  14              		.thumb
  15              		.syntax unified
  16              		.file	"stm32f4xx_hal_pwr_ex.c"
  17              		.section	.text.HAL_PWREx_EnableBkUpReg,"ax",%progbits
  18              		.align	2
  19              		.global	HAL_PWREx_EnableBkUpReg
  20              		.thumb
  21              		.thumb_func
  23              	HAL_PWREx_EnableBkUpReg:
  24              		@ args = 0, pretend = 0, frame = 0
  25              		@ frame_needed = 0, uses_anonymous_args = 0
  26 0000 38B5     		push	{r3, r4, r5, lr}
  27 0002 4FF40072 		mov	r2, #512
  28              		.syntax unified
  29              	@ 531 "Drivers/CMSIS/Include/cmsis_gcc.h" 1
  30 0006 92FAA2F2 		rbit r2, r2
  31              	@ 0 "" 2
  32              		.thumb
  33              		.syntax unified
  34 000a 0C4B     		ldr	r3, .L8
  35 000c 0C4C     		ldr	r4, .L8+4
  36 000e B2FA82F2 		clz	r2, r2
  37 0012 1344     		add	r3, r3, r2
  38 0014 9B00     		lsls	r3, r3, #2
  39 0016 0122     		movs	r2, #1
  40 0018 1A60     		str	r2, [r3]
  41 001a FFF7FEFF 		bl	HAL_GetTick
  42 001e 0546     		mov	r5, r0
  43 0020 05E0     		b	.L2
  44              	.L4:
  45 0022 FFF7FEFF 		bl	HAL_GetTick
  46 0026 401B     		subs	r0, r0, r5
  47 0028 B0F57A7F 		cmp	r0, #1000
  48 002c 04D8     		bhi	.L5
  49              	.L2:
  50 002e 6368     		ldr	r3, [r4, #4]
  51 0030 1B07     		lsls	r3, r3, #28
  52 0032 F6D5     		bpl	.L4
  53 0034 0020     		movs	r0, #0
  54 0036 38BD     		pop	{r3, r4, r5, pc}
  55              	.L5:
  56 0038 0320     		movs	r0, #3
  57 003a 38BD     		pop	{r3, r4, r5, pc}
  58              	.L9:
ARM GAS  /tmp/ccXDD4tW.s 			page 2


  59              		.align	2
  60              	.L8:
  61 003c 20808310 		.word	277053472
  62 0040 00700040 		.word	1073770496
  64              		.section	.text.HAL_PWREx_DisableBkUpReg,"ax",%progbits
  65              		.align	2
  66              		.global	HAL_PWREx_DisableBkUpReg
  67              		.thumb
  68              		.thumb_func
  70              	HAL_PWREx_DisableBkUpReg:
  71              		@ args = 0, pretend = 0, frame = 0
  72              		@ frame_needed = 0, uses_anonymous_args = 0
  73 0000 38B5     		push	{r3, r4, r5, lr}
  74 0002 4FF40072 		mov	r2, #512
  75              		.syntax unified
  76              	@ 531 "Drivers/CMSIS/Include/cmsis_gcc.h" 1
  77 0006 92FAA2F2 		rbit r2, r2
  78              	@ 0 "" 2
  79              		.thumb
  80              		.syntax unified
  81 000a 0C4B     		ldr	r3, .L16
  82 000c 0C4C     		ldr	r4, .L16+4
  83 000e B2FA82F2 		clz	r2, r2
  84 0012 1344     		add	r3, r3, r2
  85 0014 9B00     		lsls	r3, r3, #2
  86 0016 0022     		movs	r2, #0
  87 0018 1A60     		str	r2, [r3]
  88 001a FFF7FEFF 		bl	HAL_GetTick
  89 001e 0546     		mov	r5, r0
  90 0020 05E0     		b	.L11
  91              	.L13:
  92 0022 FFF7FEFF 		bl	HAL_GetTick
  93 0026 401B     		subs	r0, r0, r5
  94 0028 B0F57A7F 		cmp	r0, #1000
  95 002c 04D8     		bhi	.L14
  96              	.L11:
  97 002e 6068     		ldr	r0, [r4, #4]
  98 0030 10F00800 		ands	r0, r0, #8
  99 0034 F5D1     		bne	.L13
 100 0036 38BD     		pop	{r3, r4, r5, pc}
 101              	.L14:
 102 0038 0320     		movs	r0, #3
 103 003a 38BD     		pop	{r3, r4, r5, pc}
 104              	.L17:
 105              		.align	2
 106              	.L16:
 107 003c 20808310 		.word	277053472
 108 0040 00700040 		.word	1073770496
 110              		.section	.text.HAL_PWREx_EnableFlashPowerDown,"ax",%progbits
 111              		.align	2
 112              		.global	HAL_PWREx_EnableFlashPowerDown
 113              		.thumb
 114              		.thumb_func
 116              	HAL_PWREx_EnableFlashPowerDown:
 117              		@ args = 0, pretend = 0, frame = 0
 118              		@ frame_needed = 0, uses_anonymous_args = 0
 119              		@ link register save eliminated.
ARM GAS  /tmp/ccXDD4tW.s 			page 3


 120 0000 4FF40073 		mov	r3, #512
 121              		.syntax unified
 122              	@ 531 "Drivers/CMSIS/Include/cmsis_gcc.h" 1
 123 0004 93FAA3F3 		rbit r3, r3
 124              	@ 0 "" 2
 125              		.thumb
 126              		.syntax unified
 127 0008 B3FA83F3 		clz	r3, r3
 128 000c 03F18453 		add	r3, r3, #276824064
 129 0010 03F56033 		add	r3, r3, #229376
 130 0014 9B00     		lsls	r3, r3, #2
 131 0016 0122     		movs	r2, #1
 132 0018 1A60     		str	r2, [r3]
 133 001a 7047     		bx	lr
 135              		.section	.text.HAL_PWREx_DisableFlashPowerDown,"ax",%progbits
 136              		.align	2
 137              		.global	HAL_PWREx_DisableFlashPowerDown
 138              		.thumb
 139              		.thumb_func
 141              	HAL_PWREx_DisableFlashPowerDown:
 142              		@ args = 0, pretend = 0, frame = 0
 143              		@ frame_needed = 0, uses_anonymous_args = 0
 144              		@ link register save eliminated.
 145 0000 4FF40073 		mov	r3, #512
 146              		.syntax unified
 147              	@ 531 "Drivers/CMSIS/Include/cmsis_gcc.h" 1
 148 0004 93FAA3F3 		rbit r3, r3
 149              	@ 0 "" 2
 150              		.thumb
 151              		.syntax unified
 152 0008 B3FA83F3 		clz	r3, r3
 153 000c 03F18453 		add	r3, r3, #276824064
 154 0010 03F56033 		add	r3, r3, #229376
 155 0014 9B00     		lsls	r3, r3, #2
 156 0016 0022     		movs	r2, #0
 157 0018 1A60     		str	r2, [r3]
 158 001a 7047     		bx	lr
 160              		.section	.text.HAL_PWREx_GetVoltageRange,"ax",%progbits
 161              		.align	2
 162              		.global	HAL_PWREx_GetVoltageRange
 163              		.thumb
 164              		.thumb_func
 166              	HAL_PWREx_GetVoltageRange:
 167              		@ args = 0, pretend = 0, frame = 0
 168              		@ frame_needed = 0, uses_anonymous_args = 0
 169              		@ link register save eliminated.
 170 0000 024B     		ldr	r3, .L21
 171 0002 1868     		ldr	r0, [r3]
 172 0004 00F44040 		and	r0, r0, #49152
 173 0008 7047     		bx	lr
 174              	.L22:
 175 000a 00BF     		.align	2
 176              	.L21:
 177 000c 00700040 		.word	1073770496
 179              		.section	.text.HAL_PWREx_ControlVoltageScaling,"ax",%progbits
 180              		.align	2
 181              		.global	HAL_PWREx_ControlVoltageScaling
ARM GAS  /tmp/ccXDD4tW.s 			page 4


 182              		.thumb
 183              		.thumb_func
 185              	HAL_PWREx_ControlVoltageScaling:
 186              		@ args = 0, pretend = 0, frame = 8
 187              		@ frame_needed = 0, uses_anonymous_args = 0
 188 0000 70B5     		push	{r4, r5, r6, lr}
 189 0002 82B0     		sub	sp, sp, #8
 190 0004 294C     		ldr	r4, .L35
 191 0006 0022     		movs	r2, #0
 192 0008 0092     		str	r2, [sp]
 193 000a 236C     		ldr	r3, [r4, #64]
 194 000c 43F08053 		orr	r3, r3, #268435456
 195 0010 2364     		str	r3, [r4, #64]
 196 0012 236C     		ldr	r3, [r4, #64]
 197 0014 03F08053 		and	r3, r3, #268435456
 198 0018 0093     		str	r3, [sp]
 199 001a 009B     		ldr	r3, [sp]
 200 001c A368     		ldr	r3, [r4, #8]
 201 001e 03F00C03 		and	r3, r3, #12
 202 0022 082B     		cmp	r3, #8
 203 0024 3ED0     		beq	.L32
 204 0026 224B     		ldr	r3, .L35+4
 205 0028 1A60     		str	r2, [r3]
 206 002a 0646     		mov	r6, r0
 207 002c FFF7FEFF 		bl	HAL_GetTick
 208 0030 0546     		mov	r5, r0
 209 0032 04E0     		b	.L25
 210              	.L26:
 211 0034 FFF7FEFF 		bl	HAL_GetTick
 212 0038 401B     		subs	r0, r0, r5
 213 003a 0228     		cmp	r0, #2
 214 003c 2FD8     		bhi	.L28
 215              	.L25:
 216 003e 2368     		ldr	r3, [r4]
 217 0040 13F00073 		ands	r3, r3, #33554432
 218 0044 F6D1     		bne	.L26
 219 0046 1B4A     		ldr	r2, .L35+8
 220 0048 0193     		str	r3, [sp, #4]
 221 004a 1368     		ldr	r3, [r2]
 222 004c 1849     		ldr	r1, .L35+4
 223 004e 174C     		ldr	r4, .L35
 224 0050 23F44043 		bic	r3, r3, #49152
 225 0054 1E43     		orrs	r6, r6, r3
 226 0056 1660     		str	r6, [r2]
 227 0058 1368     		ldr	r3, [r2]
 228 005a 03F44043 		and	r3, r3, #49152
 229 005e 0193     		str	r3, [sp, #4]
 230 0060 0123     		movs	r3, #1
 231 0062 019A     		ldr	r2, [sp, #4]
 232 0064 0B60     		str	r3, [r1]
 233 0066 FFF7FEFF 		bl	HAL_GetTick
 234 006a 0546     		mov	r5, r0
 235 006c 04E0     		b	.L27
 236              	.L29:
 237 006e FFF7FEFF 		bl	HAL_GetTick
 238 0072 401B     		subs	r0, r0, r5
 239 0074 0228     		cmp	r0, #2
ARM GAS  /tmp/ccXDD4tW.s 			page 5


 240 0076 12D8     		bhi	.L28
 241              	.L27:
 242 0078 2368     		ldr	r3, [r4]
 243 007a 9A01     		lsls	r2, r3, #6
 244 007c F7D5     		bpl	.L29
 245 007e FFF7FEFF 		bl	HAL_GetTick
 246 0082 0C4C     		ldr	r4, .L35+8
 247 0084 0546     		mov	r5, r0
 248 0086 05E0     		b	.L30
 249              	.L31:
 250 0088 FFF7FEFF 		bl	HAL_GetTick
 251 008c 401B     		subs	r0, r0, r5
 252 008e B0F57A7F 		cmp	r0, #1000
 253 0092 04D8     		bhi	.L28
 254              	.L30:
 255 0094 6368     		ldr	r3, [r4, #4]
 256 0096 5B04     		lsls	r3, r3, #17
 257 0098 F6D5     		bpl	.L31
 258 009a 0020     		movs	r0, #0
 259 009c 00E0     		b	.L24
 260              	.L28:
 261 009e 0320     		movs	r0, #3
 262              	.L24:
 263 00a0 02B0     		add	sp, sp, #8
 264              		@ sp needed
 265 00a2 70BD     		pop	{r4, r5, r6, pc}
 266              	.L32:
 267 00a4 0120     		movs	r0, #1
 268 00a6 02B0     		add	sp, sp, #8
 269              		@ sp needed
 270 00a8 70BD     		pop	{r4, r5, r6, pc}
 271              	.L36:
 272 00aa 00BF     		.align	2
 273              	.L35:
 274 00ac 00380240 		.word	1073887232
 275 00b0 60004742 		.word	1111949408
 276 00b4 00700040 		.word	1073770496
 278              		.section	.text.HAL_PWREx_EnableOverDrive,"ax",%progbits
 279              		.align	2
 280              		.global	HAL_PWREx_EnableOverDrive
 281              		.thumb
 282              		.thumb_func
 284              	HAL_PWREx_EnableOverDrive:
 285              		@ args = 0, pretend = 0, frame = 8
 286              		@ frame_needed = 0, uses_anonymous_args = 0
 287 0000 30B5     		push	{r4, r5, lr}
 288 0002 83B0     		sub	sp, sp, #12
 289 0004 234B     		ldr	r3, .L46
 290 0006 0022     		movs	r2, #0
 291 0008 0192     		str	r2, [sp, #4]
 292 000a 1A6C     		ldr	r2, [r3, #64]
 293 000c 42F08052 		orr	r2, r2, #268435456
 294 0010 1A64     		str	r2, [r3, #64]
 295 0012 1B6C     		ldr	r3, [r3, #64]
 296 0014 03F08053 		and	r3, r3, #268435456
 297 0018 0193     		str	r3, [sp, #4]
 298 001a 019B     		ldr	r3, [sp, #4]
ARM GAS  /tmp/ccXDD4tW.s 			page 6


 299 001c 4FF48033 		mov	r3, #65536
 300              		.syntax unified
 301              	@ 531 "Drivers/CMSIS/Include/cmsis_gcc.h" 1
 302 0020 93FAA3F3 		rbit r3, r3
 303              	@ 0 "" 2
 304              		.thumb
 305              		.syntax unified
 306 0024 B3FA83F3 		clz	r3, r3
 307 0028 03F18453 		add	r3, r3, #276824064
 308 002c 03F56033 		add	r3, r3, #229376
 309 0030 9B00     		lsls	r3, r3, #2
 310 0032 0122     		movs	r2, #1
 311 0034 1A60     		str	r2, [r3]
 312 0036 FFF7FEFF 		bl	HAL_GetTick
 313 003a 174C     		ldr	r4, .L46+4
 314 003c 0546     		mov	r5, r0
 315 003e 05E0     		b	.L38
 316              	.L40:
 317 0040 FFF7FEFF 		bl	HAL_GetTick
 318 0044 401B     		subs	r0, r0, r5
 319 0046 B0F57A7F 		cmp	r0, #1000
 320 004a 20D8     		bhi	.L42
 321              	.L38:
 322 004c 6368     		ldr	r3, [r4, #4]
 323 004e DA03     		lsls	r2, r3, #15
 324 0050 F6D5     		bpl	.L40
 325 0052 4FF40033 		mov	r3, #131072
 326              		.syntax unified
 327              	@ 531 "Drivers/CMSIS/Include/cmsis_gcc.h" 1
 328 0056 93FAA3F3 		rbit r3, r3
 329              	@ 0 "" 2
 330              		.thumb
 331              		.syntax unified
 332 005a B3FA83F3 		clz	r3, r3
 333 005e 03F18453 		add	r3, r3, #276824064
 334 0062 03F56033 		add	r3, r3, #229376
 335 0066 9B00     		lsls	r3, r3, #2
 336 0068 0122     		movs	r2, #1
 337 006a 1A60     		str	r2, [r3]
 338 006c FFF7FEFF 		bl	HAL_GetTick
 339 0070 094C     		ldr	r4, .L46+4
 340 0072 0546     		mov	r5, r0
 341 0074 05E0     		b	.L41
 342              	.L43:
 343 0076 FFF7FEFF 		bl	HAL_GetTick
 344 007a 401B     		subs	r0, r0, r5
 345 007c B0F57A7F 		cmp	r0, #1000
 346 0080 05D8     		bhi	.L42
 347              	.L41:
 348 0082 6368     		ldr	r3, [r4, #4]
 349 0084 9B03     		lsls	r3, r3, #14
 350 0086 F6D5     		bpl	.L43
 351 0088 0020     		movs	r0, #0
 352 008a 03B0     		add	sp, sp, #12
 353              		@ sp needed
 354 008c 30BD     		pop	{r4, r5, pc}
 355              	.L42:
ARM GAS  /tmp/ccXDD4tW.s 			page 7


 356 008e 0320     		movs	r0, #3
 357 0090 03B0     		add	sp, sp, #12
 358              		@ sp needed
 359 0092 30BD     		pop	{r4, r5, pc}
 360              	.L47:
 361              		.align	2
 362              	.L46:
 363 0094 00380240 		.word	1073887232
 364 0098 00700040 		.word	1073770496
 366              		.section	.text.HAL_PWREx_DisableOverDrive,"ax",%progbits
 367              		.align	2
 368              		.global	HAL_PWREx_DisableOverDrive
 369              		.thumb
 370              		.thumb_func
 372              	HAL_PWREx_DisableOverDrive:
 373              		@ args = 0, pretend = 0, frame = 8
 374              		@ frame_needed = 0, uses_anonymous_args = 0
 375 0000 30B5     		push	{r4, r5, lr}
 376 0002 83B0     		sub	sp, sp, #12
 377 0004 234B     		ldr	r3, .L57
 378 0006 0021     		movs	r1, #0
 379 0008 0191     		str	r1, [sp, #4]
 380 000a 1A6C     		ldr	r2, [r3, #64]
 381 000c 42F08052 		orr	r2, r2, #268435456
 382 0010 1A64     		str	r2, [r3, #64]
 383 0012 1B6C     		ldr	r3, [r3, #64]
 384 0014 03F08053 		and	r3, r3, #268435456
 385 0018 0193     		str	r3, [sp, #4]
 386 001a 019B     		ldr	r3, [sp, #4]
 387 001c 4FF40033 		mov	r3, #131072
 388              		.syntax unified
 389              	@ 531 "Drivers/CMSIS/Include/cmsis_gcc.h" 1
 390 0020 93FAA3F3 		rbit r3, r3
 391              	@ 0 "" 2
 392              		.thumb
 393              		.syntax unified
 394 0024 B3FA83F3 		clz	r3, r3
 395 0028 03F18453 		add	r3, r3, #276824064
 396 002c 03F56033 		add	r3, r3, #229376
 397 0030 9B00     		lsls	r3, r3, #2
 398 0032 194C     		ldr	r4, .L57+4
 399 0034 1960     		str	r1, [r3]
 400 0036 FFF7FEFF 		bl	HAL_GetTick
 401 003a 0546     		mov	r5, r0
 402 003c 05E0     		b	.L49
 403              	.L51:
 404 003e FFF7FEFF 		bl	HAL_GetTick
 405 0042 401B     		subs	r0, r0, r5
 406 0044 B0F57A7F 		cmp	r0, #1000
 407 0048 20D8     		bhi	.L53
 408              	.L49:
 409 004a 6368     		ldr	r3, [r4, #4]
 410 004c 13F40033 		ands	r3, r3, #131072
 411 0050 F5D1     		bne	.L51
 412 0052 4FF48032 		mov	r2, #65536
 413              		.syntax unified
 414              	@ 531 "Drivers/CMSIS/Include/cmsis_gcc.h" 1
ARM GAS  /tmp/ccXDD4tW.s 			page 8


 415 0056 92FAA2F2 		rbit r2, r2
 416              	@ 0 "" 2
 417              		.thumb
 418              		.syntax unified
 419 005a B2FA82F2 		clz	r2, r2
 420 005e 02F18452 		add	r2, r2, #276824064
 421 0062 02F56032 		add	r2, r2, #229376
 422 0066 9200     		lsls	r2, r2, #2
 423 0068 0B4C     		ldr	r4, .L57+4
 424 006a 1360     		str	r3, [r2]
 425 006c FFF7FEFF 		bl	HAL_GetTick
 426 0070 0546     		mov	r5, r0
 427 0072 05E0     		b	.L52
 428              	.L54:
 429 0074 FFF7FEFF 		bl	HAL_GetTick
 430 0078 401B     		subs	r0, r0, r5
 431 007a B0F57A7F 		cmp	r0, #1000
 432 007e 05D8     		bhi	.L53
 433              	.L52:
 434 0080 6068     		ldr	r0, [r4, #4]
 435 0082 10F48030 		ands	r0, r0, #65536
 436 0086 F5D1     		bne	.L54
 437 0088 03B0     		add	sp, sp, #12
 438              		@ sp needed
 439 008a 30BD     		pop	{r4, r5, pc}
 440              	.L53:
 441 008c 0320     		movs	r0, #3
 442 008e 03B0     		add	sp, sp, #12
 443              		@ sp needed
 444 0090 30BD     		pop	{r4, r5, pc}
 445              	.L58:
 446 0092 00BF     		.align	2
 447              	.L57:
 448 0094 00380240 		.word	1073887232
 449 0098 00700040 		.word	1073770496
 451              		.section	.text.HAL_PWREx_EnterUnderDriveSTOPMode,"ax",%progbits
 452              		.align	2
 453              		.global	HAL_PWREx_EnterUnderDriveSTOPMode
 454              		.thumb
 455              		.thumb_func
 457              	HAL_PWREx_EnterUnderDriveSTOPMode:
 458              		@ args = 0, pretend = 0, frame = 8
 459              		@ frame_needed = 0, uses_anonymous_args = 0
 460 0000 F0B5     		push	{r4, r5, r6, r7, lr}
 461 0002 83B0     		sub	sp, sp, #12
 462 0004 214B     		ldr	r3, .L68
 463 0006 224C     		ldr	r4, .L68+4
 464 0008 0022     		movs	r2, #0
 465 000a 0192     		str	r2, [sp, #4]
 466 000c 1A6C     		ldr	r2, [r3, #64]
 467 000e 42F08052 		orr	r2, r2, #268435456
 468 0012 1A64     		str	r2, [r3, #64]
 469 0014 1B6C     		ldr	r3, [r3, #64]
 470 0016 03F08053 		and	r3, r3, #268435456
 471 001a 0193     		str	r3, [sp, #4]
 472 001c 019B     		ldr	r3, [sp, #4]
 473 001e 6368     		ldr	r3, [r4, #4]
ARM GAS  /tmp/ccXDD4tW.s 			page 9


 474 0020 43F44023 		orr	r3, r3, #786432
 475 0024 6360     		str	r3, [r4, #4]
 476 0026 2368     		ldr	r3, [r4]
 477 0028 43F44023 		orr	r3, r3, #786432
 478 002c 2360     		str	r3, [r4]
 479 002e 0546     		mov	r5, r0
 480 0030 0E46     		mov	r6, r1
 481 0032 FFF7FEFF 		bl	HAL_GetTick
 482 0036 0746     		mov	r7, r0
 483 0038 05E0     		b	.L60
 484              	.L62:
 485 003a FFF7FEFF 		bl	HAL_GetTick
 486 003e C01B     		subs	r0, r0, r7
 487 0040 B0F57A7F 		cmp	r0, #1000
 488 0044 1DD8     		bhi	.L65
 489              	.L60:
 490 0046 6368     		ldr	r3, [r4, #4]
 491 0048 114A     		ldr	r2, .L68+4
 492 004a 03F44023 		and	r3, r3, #786432
 493 004e B3F5402F 		cmp	r3, #786432
 494 0052 F2D0     		beq	.L62
 495 0054 1368     		ldr	r3, [r2]
 496 0056 0F49     		ldr	r1, .L68+8
 497 0058 23F44063 		bic	r3, r3, #3072
 498 005c 23F00303 		bic	r3, r3, #3
 499 0060 1D43     		orrs	r5, r5, r3
 500 0062 1560     		str	r5, [r2]
 501 0064 0B69     		ldr	r3, [r1, #16]
 502 0066 012E     		cmp	r6, #1
 503 0068 43F00403 		orr	r3, r3, #4
 504 006c 0B61     		str	r3, [r1, #16]
 505 006e 0BD0     		beq	.L67
 506              		.syntax unified
 507              	@ 396 "Drivers/CMSIS/Include/cmsis_gcc.h" 1
 508 0070 20BF     		wfe
 509              	@ 0 "" 2
 510              		.thumb
 511              		.syntax unified
 512              	.L64:
 513 0072 084A     		ldr	r2, .L68+8
 514 0074 1369     		ldr	r3, [r2, #16]
 515 0076 0020     		movs	r0, #0
 516 0078 23F00403 		bic	r3, r3, #4
 517 007c 1361     		str	r3, [r2, #16]
 518 007e 03B0     		add	sp, sp, #12
 519              		@ sp needed
 520 0080 F0BD     		pop	{r4, r5, r6, r7, pc}
 521              	.L65:
 522 0082 0320     		movs	r0, #3
 523 0084 03B0     		add	sp, sp, #12
 524              		@ sp needed
 525 0086 F0BD     		pop	{r4, r5, r6, r7, pc}
 526              	.L67:
 527              		.syntax unified
 528              	@ 385 "Drivers/CMSIS/Include/cmsis_gcc.h" 1
 529 0088 30BF     		wfi
 530              	@ 0 "" 2
ARM GAS  /tmp/ccXDD4tW.s 			page 10


 531              		.thumb
 532              		.syntax unified
 533 008a F2E7     		b	.L64
 534              	.L69:
 535              		.align	2
 536              	.L68:
 537 008c 00380240 		.word	1073887232
 538 0090 00700040 		.word	1073770496
 539 0094 00ED00E0 		.word	-536810240
 541              		.ident	"GCC: (GNU Tools for ARM Embedded Processors) 5.4.1 20160919 (release) [ARM/embedded-5-bran
ARM GAS  /tmp/ccXDD4tW.s 			page 11


DEFINED SYMBOLS
                            *ABS*:00000000 stm32f4xx_hal_pwr_ex.c
     /tmp/ccXDD4tW.s:18     .text.HAL_PWREx_EnableBkUpReg:00000000 $t
     /tmp/ccXDD4tW.s:23     .text.HAL_PWREx_EnableBkUpReg:00000000 HAL_PWREx_EnableBkUpReg
     /tmp/ccXDD4tW.s:61     .text.HAL_PWREx_EnableBkUpReg:0000003c $d
     /tmp/ccXDD4tW.s:65     .text.HAL_PWREx_DisableBkUpReg:00000000 $t
     /tmp/ccXDD4tW.s:70     .text.HAL_PWREx_DisableBkUpReg:00000000 HAL_PWREx_DisableBkUpReg
     /tmp/ccXDD4tW.s:107    .text.HAL_PWREx_DisableBkUpReg:0000003c $d
     /tmp/ccXDD4tW.s:111    .text.HAL_PWREx_EnableFlashPowerDown:00000000 $t
     /tmp/ccXDD4tW.s:116    .text.HAL_PWREx_EnableFlashPowerDown:00000000 HAL_PWREx_EnableFlashPowerDown
     /tmp/ccXDD4tW.s:136    .text.HAL_PWREx_DisableFlashPowerDown:00000000 $t
     /tmp/ccXDD4tW.s:141    .text.HAL_PWREx_DisableFlashPowerDown:00000000 HAL_PWREx_DisableFlashPowerDown
     /tmp/ccXDD4tW.s:161    .text.HAL_PWREx_GetVoltageRange:00000000 $t
     /tmp/ccXDD4tW.s:166    .text.HAL_PWREx_GetVoltageRange:00000000 HAL_PWREx_GetVoltageRange
     /tmp/ccXDD4tW.s:177    .text.HAL_PWREx_GetVoltageRange:0000000c $d
     /tmp/ccXDD4tW.s:180    .text.HAL_PWREx_ControlVoltageScaling:00000000 $t
     /tmp/ccXDD4tW.s:185    .text.HAL_PWREx_ControlVoltageScaling:00000000 HAL_PWREx_ControlVoltageScaling
     /tmp/ccXDD4tW.s:274    .text.HAL_PWREx_ControlVoltageScaling:000000ac $d
     /tmp/ccXDD4tW.s:279    .text.HAL_PWREx_EnableOverDrive:00000000 $t
     /tmp/ccXDD4tW.s:284    .text.HAL_PWREx_EnableOverDrive:00000000 HAL_PWREx_EnableOverDrive
     /tmp/ccXDD4tW.s:363    .text.HAL_PWREx_EnableOverDrive:00000094 $d
     /tmp/ccXDD4tW.s:367    .text.HAL_PWREx_DisableOverDrive:00000000 $t
     /tmp/ccXDD4tW.s:372    .text.HAL_PWREx_DisableOverDrive:00000000 HAL_PWREx_DisableOverDrive
     /tmp/ccXDD4tW.s:448    .text.HAL_PWREx_DisableOverDrive:00000094 $d
     /tmp/ccXDD4tW.s:452    .text.HAL_PWREx_EnterUnderDriveSTOPMode:00000000 $t
     /tmp/ccXDD4tW.s:457    .text.HAL_PWREx_EnterUnderDriveSTOPMode:00000000 HAL_PWREx_EnterUnderDriveSTOPMode
     /tmp/ccXDD4tW.s:537    .text.HAL_PWREx_EnterUnderDriveSTOPMode:0000008c $d

UNDEFINED SYMBOLS
HAL_GetTick
