ARM GAS  /var/folders/_j/px34bss161g6w2_6fxy_byhh0000gn/T//cc3dXcWG.s 			page 1


   1              		.syntax unified
   2              		.cpu cortex-m4
   3              		.eabi_attribute 27, 1
   4              		.fpu fpv4-sp-d16
   5              		.eabi_attribute 20, 1
   6              		.eabi_attribute 21, 1
   7              		.eabi_attribute 23, 3
   8              		.eabi_attribute 24, 1
   9              		.eabi_attribute 25, 1
  10              		.eabi_attribute 26, 1
  11              		.eabi_attribute 30, 2
  12              		.eabi_attribute 34, 1
  13              		.eabi_attribute 18, 4
  14              		.thumb
  15              		.file	"stm32f4xx_hal_tim_ex.c"
  16              		.section	.text.HAL_TIMEx_HallSensor_MspInit,"ax",%progbits
  17              		.align	2
  18              		.weak	HAL_TIMEx_HallSensor_MspInit
  19              		.thumb
  20              		.thumb_func
  22              	HAL_TIMEx_HallSensor_MspInit:
  23              		@ args = 0, pretend = 0, frame = 0
  24              		@ frame_needed = 0, uses_anonymous_args = 0
  25              		@ link register save eliminated.
  26 0000 7047     		bx	lr
  28 0002 00BF     		.section	.text.HAL_TIMEx_HallSensor_Init,"ax",%progbits
  29              		.align	2
  30              		.global	HAL_TIMEx_HallSensor_Init
  31              		.thumb
  32              		.thumb_func
  34              	HAL_TIMEx_HallSensor_Init:
  35              		@ args = 0, pretend = 0, frame = 32
  36              		@ frame_needed = 0, uses_anonymous_args = 0
  37 0000 0028     		cmp	r0, #0
  38 0002 4CD0     		beq	.L4
  39 0004 70B5     		push	{r4, r5, r6, lr}
  40 0006 0223     		movs	r3, #2
  41 0008 88B0     		sub	sp, sp, #32
  42 000a 0546     		mov	r5, r0
  43 000c 80F83930 		strb	r3, [r0, #57]
  44 0010 0E46     		mov	r6, r1
  45 0012 FFF7FEFF 		bl	HAL_TIMEx_HallSensor_MspInit
  46 0016 2946     		mov	r1, r5
  47 0018 0024     		movs	r4, #0
  48 001a 51F8040B 		ldr	r0, [r1], #4
  49 001e FFF7FEFF 		bl	TIM_Base_SetConfig
  50 0022 2868     		ldr	r0, [r5]
  51 0024 3168     		ldr	r1, [r6]
  52 0026 B368     		ldr	r3, [r6, #8]
  53 0028 0322     		movs	r2, #3
  54 002a FFF7FEFF 		bl	TIM_TI1_SetConfig
  55 002e 2868     		ldr	r0, [r5]
  56 0030 F168     		ldr	r1, [r6, #12]
  57 0032 8269     		ldr	r2, [r0, #24]
  58 0034 7368     		ldr	r3, [r6, #4]
  59 0036 22F00C02 		bic	r2, r2, #12
  60 003a 8261     		str	r2, [r0, #24]
ARM GAS  /var/folders/_j/px34bss161g6w2_6fxy_byhh0000gn/T//cc3dXcWG.s 			page 2


  61 003c 8269     		ldr	r2, [r0, #24]
  62 003e 1343     		orrs	r3, r3, r2
  63 0040 8361     		str	r3, [r0, #24]
  64 0042 4368     		ldr	r3, [r0, #4]
  65 0044 43F08003 		orr	r3, r3, #128
  66 0048 4360     		str	r3, [r0, #4]
  67 004a 8368     		ldr	r3, [r0, #8]
  68 004c 0291     		str	r1, [sp, #8]
  69 004e 23F07003 		bic	r3, r3, #112
  70 0052 8360     		str	r3, [r0, #8]
  71 0054 8368     		ldr	r3, [r0, #8]
  72 0056 43F04003 		orr	r3, r3, #64
  73 005a 8360     		str	r3, [r0, #8]
  74 005c 8368     		ldr	r3, [r0, #8]
  75 005e 23F00703 		bic	r3, r3, #7
  76 0062 8360     		str	r3, [r0, #8]
  77 0064 8368     		ldr	r3, [r0, #8]
  78 0066 43F00403 		orr	r3, r3, #4
  79 006a 8360     		str	r3, [r0, #8]
  80 006c 01A9     		add	r1, sp, #4
  81 006e 7023     		movs	r3, #112
  82 0070 0193     		str	r3, [sp, #4]
  83 0072 0594     		str	r4, [sp, #20]
  84 0074 0694     		str	r4, [sp, #24]
  85 0076 0794     		str	r4, [sp, #28]
  86 0078 0494     		str	r4, [sp, #16]
  87 007a 0394     		str	r4, [sp, #12]
  88 007c FFF7FEFF 		bl	TIM_OC2_SetConfig
  89 0080 2B68     		ldr	r3, [r5]
  90 0082 5A68     		ldr	r2, [r3, #4]
  91 0084 22F07002 		bic	r2, r2, #112
  92 0088 5A60     		str	r2, [r3, #4]
  93 008a 5A68     		ldr	r2, [r3, #4]
  94 008c 0121     		movs	r1, #1
  95 008e 42F05002 		orr	r2, r2, #80
  96 0092 2046     		mov	r0, r4
  97 0094 5A60     		str	r2, [r3, #4]
  98 0096 85F83910 		strb	r1, [r5, #57]
  99 009a 08B0     		add	sp, sp, #32
 100              		@ sp needed
 101 009c 70BD     		pop	{r4, r5, r6, pc}
 102              	.L4:
 103 009e 0120     		movs	r0, #1
 104 00a0 7047     		bx	lr
 106 00a2 00BF     		.section	.text.HAL_TIMEx_HallSensor_MspDeInit,"ax",%progbits
 107              		.align	2
 108              		.weak	HAL_TIMEx_HallSensor_MspDeInit
 109              		.thumb
 110              		.thumb_func
 112              	HAL_TIMEx_HallSensor_MspDeInit:
 113              		@ args = 0, pretend = 0, frame = 0
 114              		@ frame_needed = 0, uses_anonymous_args = 0
 115              		@ link register save eliminated.
 116 0000 7047     		bx	lr
 118 0002 00BF     		.section	.text.HAL_TIMEx_HallSensor_DeInit,"ax",%progbits
 119              		.align	2
 120              		.global	HAL_TIMEx_HallSensor_DeInit
ARM GAS  /var/folders/_j/px34bss161g6w2_6fxy_byhh0000gn/T//cc3dXcWG.s 			page 3


 121              		.thumb
 122              		.thumb_func
 124              	HAL_TIMEx_HallSensor_DeInit:
 125              		@ args = 0, pretend = 0, frame = 0
 126              		@ frame_needed = 0, uses_anonymous_args = 0
 127 0000 0223     		movs	r3, #2
 128 0002 0268     		ldr	r2, [r0]
 129 0004 10B5     		push	{r4, lr}
 130 0006 80F83930 		strb	r3, [r0, #57]
 131 000a 116A     		ldr	r1, [r2, #32]
 132 000c 41F21113 		movw	r3, #4369
 133 0010 0B40     		ands	r3, r3, r1
 134 0012 0446     		mov	r4, r0
 135 0014 43B9     		cbnz	r3, .L10
 136 0016 116A     		ldr	r1, [r2, #32]
 137 0018 40F24443 		movw	r3, #1092
 138 001c 0B40     		ands	r3, r3, r1
 139 001e 1BB9     		cbnz	r3, .L10
 140 0020 1368     		ldr	r3, [r2]
 141 0022 23F00103 		bic	r3, r3, #1
 142 0026 1360     		str	r3, [r2]
 143              	.L10:
 144 0028 2046     		mov	r0, r4
 145 002a FFF7FEFF 		bl	HAL_TIMEx_HallSensor_MspDeInit
 146 002e 0020     		movs	r0, #0
 147 0030 84F83900 		strb	r0, [r4, #57]
 148 0034 84F83800 		strb	r0, [r4, #56]
 149 0038 10BD     		pop	{r4, pc}
 151 003a 00BF     		.section	.text.HAL_TIMEx_HallSensor_Start,"ax",%progbits
 152              		.align	2
 153              		.global	HAL_TIMEx_HallSensor_Start
 154              		.thumb
 155              		.thumb_func
 157              	HAL_TIMEx_HallSensor_Start:
 158              		@ args = 0, pretend = 0, frame = 0
 159              		@ frame_needed = 0, uses_anonymous_args = 0
 160 0000 10B5     		push	{r4, lr}
 161 0002 0446     		mov	r4, r0
 162 0004 0021     		movs	r1, #0
 163 0006 0068     		ldr	r0, [r0]
 164 0008 0122     		movs	r2, #1
 165 000a FFF7FEFF 		bl	TIM_CCxChannelCmd
 166 000e 2268     		ldr	r2, [r4]
 167 0010 1368     		ldr	r3, [r2]
 168 0012 43F00103 		orr	r3, r3, #1
 169 0016 1360     		str	r3, [r2]
 170 0018 0020     		movs	r0, #0
 171 001a 10BD     		pop	{r4, pc}
 173              		.section	.text.HAL_TIMEx_HallSensor_Stop,"ax",%progbits
 174              		.align	2
 175              		.global	HAL_TIMEx_HallSensor_Stop
 176              		.thumb
 177              		.thumb_func
 179              	HAL_TIMEx_HallSensor_Stop:
 180              		@ args = 0, pretend = 0, frame = 0
 181              		@ frame_needed = 0, uses_anonymous_args = 0
 182 0000 0021     		movs	r1, #0
ARM GAS  /var/folders/_j/px34bss161g6w2_6fxy_byhh0000gn/T//cc3dXcWG.s 			page 4


 183 0002 10B5     		push	{r4, lr}
 184 0004 0446     		mov	r4, r0
 185 0006 0A46     		mov	r2, r1
 186 0008 0068     		ldr	r0, [r0]
 187 000a FFF7FEFF 		bl	TIM_CCxChannelCmd
 188 000e 2268     		ldr	r2, [r4]
 189 0010 116A     		ldr	r1, [r2, #32]
 190 0012 41F21113 		movw	r3, #4369
 191 0016 0B40     		ands	r3, r3, r1
 192 0018 43B9     		cbnz	r3, .L15
 193 001a 116A     		ldr	r1, [r2, #32]
 194 001c 40F24443 		movw	r3, #1092
 195 0020 0B40     		ands	r3, r3, r1
 196 0022 1BB9     		cbnz	r3, .L15
 197 0024 1368     		ldr	r3, [r2]
 198 0026 23F00103 		bic	r3, r3, #1
 199 002a 1360     		str	r3, [r2]
 200              	.L15:
 201 002c 0020     		movs	r0, #0
 202 002e 10BD     		pop	{r4, pc}
 204              		.section	.text.HAL_TIMEx_HallSensor_Start_IT,"ax",%progbits
 205              		.align	2
 206              		.global	HAL_TIMEx_HallSensor_Start_IT
 207              		.thumb
 208              		.thumb_func
 210              	HAL_TIMEx_HallSensor_Start_IT:
 211              		@ args = 0, pretend = 0, frame = 0
 212              		@ frame_needed = 0, uses_anonymous_args = 0
 213 0000 10B5     		push	{r4, lr}
 214 0002 0446     		mov	r4, r0
 215 0004 0068     		ldr	r0, [r0]
 216 0006 C368     		ldr	r3, [r0, #12]
 217 0008 43F00203 		orr	r3, r3, #2
 218 000c C360     		str	r3, [r0, #12]
 219 000e 0021     		movs	r1, #0
 220 0010 0122     		movs	r2, #1
 221 0012 FFF7FEFF 		bl	TIM_CCxChannelCmd
 222 0016 2268     		ldr	r2, [r4]
 223 0018 1368     		ldr	r3, [r2]
 224 001a 43F00103 		orr	r3, r3, #1
 225 001e 1360     		str	r3, [r2]
 226 0020 0020     		movs	r0, #0
 227 0022 10BD     		pop	{r4, pc}
 229              		.section	.text.HAL_TIMEx_HallSensor_Stop_IT,"ax",%progbits
 230              		.align	2
 231              		.global	HAL_TIMEx_HallSensor_Stop_IT
 232              		.thumb
 233              		.thumb_func
 235              	HAL_TIMEx_HallSensor_Stop_IT:
 236              		@ args = 0, pretend = 0, frame = 0
 237              		@ frame_needed = 0, uses_anonymous_args = 0
 238 0000 0021     		movs	r1, #0
 239 0002 10B5     		push	{r4, lr}
 240 0004 0446     		mov	r4, r0
 241 0006 0A46     		mov	r2, r1
 242 0008 0068     		ldr	r0, [r0]
 243 000a FFF7FEFF 		bl	TIM_CCxChannelCmd
ARM GAS  /var/folders/_j/px34bss161g6w2_6fxy_byhh0000gn/T//cc3dXcWG.s 			page 5


 244 000e 2368     		ldr	r3, [r4]
 245 0010 DA68     		ldr	r2, [r3, #12]
 246 0012 22F00202 		bic	r2, r2, #2
 247 0016 DA60     		str	r2, [r3, #12]
 248 0018 196A     		ldr	r1, [r3, #32]
 249 001a 41F21112 		movw	r2, #4369
 250 001e 0A40     		ands	r2, r2, r1
 251 0020 42B9     		cbnz	r2, .L20
 252 0022 196A     		ldr	r1, [r3, #32]
 253 0024 40F24442 		movw	r2, #1092
 254 0028 0A40     		ands	r2, r2, r1
 255 002a 1AB9     		cbnz	r2, .L20
 256 002c 1A68     		ldr	r2, [r3]
 257 002e 22F00102 		bic	r2, r2, #1
 258 0032 1A60     		str	r2, [r3]
 259              	.L20:
 260 0034 0020     		movs	r0, #0
 261 0036 10BD     		pop	{r4, pc}
 263              		.section	.text.HAL_TIMEx_HallSensor_Start_DMA,"ax",%progbits
 264              		.align	2
 265              		.global	HAL_TIMEx_HallSensor_Start_DMA
 266              		.thumb
 267              		.thumb_func
 269              	HAL_TIMEx_HallSensor_Start_DMA:
 270              		@ args = 0, pretend = 0, frame = 0
 271              		@ frame_needed = 0, uses_anonymous_args = 0
 272 0000 F8B5     		push	{r3, r4, r5, r6, r7, lr}
 273 0002 90F83940 		ldrb	r4, [r0, #57]	@ zero_extendqisi2
 274 0006 E4B2     		uxtb	r4, r4
 275 0008 022C     		cmp	r4, #2
 276 000a 28D0     		beq	.L28
 277 000c 90F83940 		ldrb	r4, [r0, #57]	@ zero_extendqisi2
 278 0010 E4B2     		uxtb	r4, r4
 279 0012 012C     		cmp	r4, #1
 280 0014 1DD0     		beq	.L30
 281              	.L25:
 282 0016 0446     		mov	r4, r0
 283 0018 1646     		mov	r6, r2
 284 001a 0D46     		mov	r5, r1
 285 001c 0068     		ldr	r0, [r0]
 286 001e 114F     		ldr	r7, .L31
 287 0020 0021     		movs	r1, #0
 288 0022 0122     		movs	r2, #1
 289 0024 FFF7FEFF 		bl	TIM_CCxChannelCmd
 290 0028 2168     		ldr	r1, [r4]
 291 002a 206A     		ldr	r0, [r4, #32]
 292 002c 0E4B     		ldr	r3, .L31+4
 293 002e C363     		str	r3, [r0, #60]
 294 0030 2A46     		mov	r2, r5
 295 0032 3346     		mov	r3, r6
 296 0034 C764     		str	r7, [r0, #76]
 297 0036 3431     		adds	r1, r1, #52
 298 0038 FFF7FEFF 		bl	HAL_DMA_Start_IT
 299 003c 2368     		ldr	r3, [r4]
 300 003e DA68     		ldr	r2, [r3, #12]
 301 0040 42F40072 		orr	r2, r2, #512
 302 0044 DA60     		str	r2, [r3, #12]
ARM GAS  /var/folders/_j/px34bss161g6w2_6fxy_byhh0000gn/T//cc3dXcWG.s 			page 6


 303 0046 1A68     		ldr	r2, [r3]
 304 0048 42F00102 		orr	r2, r2, #1
 305 004c 1A60     		str	r2, [r3]
 306 004e 0020     		movs	r0, #0
 307 0050 F8BD     		pop	{r3, r4, r5, r6, r7, pc}
 308              	.L30:
 309 0052 01B9     		cbnz	r1, .L26
 310 0054 1AB9     		cbnz	r2, .L28
 311              	.L26:
 312 0056 0223     		movs	r3, #2
 313 0058 80F83930 		strb	r3, [r0, #57]
 314 005c DBE7     		b	.L25
 315              	.L28:
 316 005e 2046     		mov	r0, r4
 317 0060 F8BD     		pop	{r3, r4, r5, r6, r7, pc}
 318              	.L32:
 319 0062 00BF     		.align	2
 320              	.L31:
 321 0064 00000000 		.word	TIM_DMAError
 322 0068 00000000 		.word	TIM_DMACaptureCplt
 324              		.section	.text.HAL_TIMEx_HallSensor_Stop_DMA,"ax",%progbits
 325              		.align	2
 326              		.global	HAL_TIMEx_HallSensor_Stop_DMA
 327              		.thumb
 328              		.thumb_func
 330              	HAL_TIMEx_HallSensor_Stop_DMA:
 331              		@ args = 0, pretend = 0, frame = 0
 332              		@ frame_needed = 0, uses_anonymous_args = 0
 333 0000 0021     		movs	r1, #0
 334 0002 10B5     		push	{r4, lr}
 335 0004 0446     		mov	r4, r0
 336 0006 0A46     		mov	r2, r1
 337 0008 0068     		ldr	r0, [r0]
 338 000a FFF7FEFF 		bl	TIM_CCxChannelCmd
 339 000e 2368     		ldr	r3, [r4]
 340 0010 DA68     		ldr	r2, [r3, #12]
 341 0012 22F40072 		bic	r2, r2, #512
 342 0016 DA60     		str	r2, [r3, #12]
 343 0018 196A     		ldr	r1, [r3, #32]
 344 001a 41F21112 		movw	r2, #4369
 345 001e 0A40     		ands	r2, r2, r1
 346 0020 42B9     		cbnz	r2, .L34
 347 0022 196A     		ldr	r1, [r3, #32]
 348 0024 40F24442 		movw	r2, #1092
 349 0028 0A40     		ands	r2, r2, r1
 350 002a 1AB9     		cbnz	r2, .L34
 351 002c 1A68     		ldr	r2, [r3]
 352 002e 22F00102 		bic	r2, r2, #1
 353 0032 1A60     		str	r2, [r3]
 354              	.L34:
 355 0034 0020     		movs	r0, #0
 356 0036 10BD     		pop	{r4, pc}
 358              		.section	.text.HAL_TIMEx_OCN_Start,"ax",%progbits
 359              		.align	2
 360              		.global	HAL_TIMEx_OCN_Start
 361              		.thumb
 362              		.thumb_func
ARM GAS  /var/folders/_j/px34bss161g6w2_6fxy_byhh0000gn/T//cc3dXcWG.s 			page 7


 364              	HAL_TIMEx_OCN_Start:
 365              		@ args = 0, pretend = 0, frame = 0
 366              		@ frame_needed = 0, uses_anonymous_args = 0
 367              		@ link register save eliminated.
 368 0000 0368     		ldr	r3, [r0]
 369 0002 0422     		movs	r2, #4
 370 0004 186A     		ldr	r0, [r3, #32]
 371 0006 8A40     		lsls	r2, r2, r1
 372 0008 20EA0200 		bic	r0, r0, r2
 373 000c 1862     		str	r0, [r3, #32]
 374 000e 196A     		ldr	r1, [r3, #32]
 375 0010 0A43     		orrs	r2, r2, r1
 376 0012 1A62     		str	r2, [r3, #32]
 377 0014 5A6C     		ldr	r2, [r3, #68]
 378 0016 42F40042 		orr	r2, r2, #32768
 379 001a 5A64     		str	r2, [r3, #68]
 380 001c 1A68     		ldr	r2, [r3]
 381 001e 42F00102 		orr	r2, r2, #1
 382 0022 1A60     		str	r2, [r3]
 383 0024 0020     		movs	r0, #0
 384 0026 7047     		bx	lr
 386              		.section	.text.HAL_TIMEx_OCN_Stop,"ax",%progbits
 387              		.align	2
 388              		.global	HAL_TIMEx_OCN_Stop
 389              		.thumb
 390              		.thumb_func
 392              	HAL_TIMEx_OCN_Stop:
 393              		@ args = 0, pretend = 0, frame = 0
 394              		@ frame_needed = 0, uses_anonymous_args = 0
 395              		@ link register save eliminated.
 396 0000 0368     		ldr	r3, [r0]
 397 0002 0420     		movs	r0, #4
 398 0004 1A6A     		ldr	r2, [r3, #32]
 399 0006 8840     		lsls	r0, r0, r1
 400 0008 22EA0002 		bic	r2, r2, r0
 401 000c 1A62     		str	r2, [r3, #32]
 402 000e 1A6A     		ldr	r2, [r3, #32]
 403 0010 1A62     		str	r2, [r3, #32]
 404 0012 196A     		ldr	r1, [r3, #32]
 405 0014 41F21112 		movw	r2, #4369
 406 0018 0A40     		ands	r2, r2, r1
 407 001a 22B9     		cbnz	r2, .L38
 408 001c 196A     		ldr	r1, [r3, #32]
 409 001e 40F24442 		movw	r2, #1092
 410 0022 0A40     		ands	r2, r2, r1
 411 0024 7AB1     		cbz	r2, .L40
 412              	.L38:
 413 0026 196A     		ldr	r1, [r3, #32]
 414 0028 41F21112 		movw	r2, #4369
 415 002c 0A40     		ands	r2, r2, r1
 416 002e 42B9     		cbnz	r2, .L39
 417 0030 196A     		ldr	r1, [r3, #32]
 418 0032 40F24442 		movw	r2, #1092
 419 0036 0A40     		ands	r2, r2, r1
 420 0038 1AB9     		cbnz	r2, .L39
 421 003a 1A68     		ldr	r2, [r3]
 422 003c 22F00102 		bic	r2, r2, #1
ARM GAS  /var/folders/_j/px34bss161g6w2_6fxy_byhh0000gn/T//cc3dXcWG.s 			page 8


 423 0040 1A60     		str	r2, [r3]
 424              	.L39:
 425 0042 0020     		movs	r0, #0
 426 0044 7047     		bx	lr
 427              	.L40:
 428 0046 5A6C     		ldr	r2, [r3, #68]
 429 0048 22F40042 		bic	r2, r2, #32768
 430 004c 5A64     		str	r2, [r3, #68]
 431 004e EAE7     		b	.L38
 433              		.section	.text.HAL_TIMEx_OCN_Start_IT,"ax",%progbits
 434              		.align	2
 435              		.global	HAL_TIMEx_OCN_Start_IT
 436              		.thumb
 437              		.thumb_func
 439              	HAL_TIMEx_OCN_Start_IT:
 440              		@ args = 0, pretend = 0, frame = 0
 441              		@ frame_needed = 0, uses_anonymous_args = 0
 442              		@ link register save eliminated.
 443 0000 0C29     		cmp	r1, #12
 444 0002 36D8     		bhi	.L42
 445 0004 DFE801F0 		tbb	[pc, r1]
 446              	.L44:
 447 0008 2F       		.byte	(.L43-.L44)/2
 448 0009 35       		.byte	(.L42-.L44)/2
 449 000a 35       		.byte	(.L42-.L44)/2
 450 000b 35       		.byte	(.L42-.L44)/2
 451 000c 29       		.byte	(.L45-.L44)/2
 452 000d 35       		.byte	(.L42-.L44)/2
 453 000e 35       		.byte	(.L42-.L44)/2
 454 000f 35       		.byte	(.L42-.L44)/2
 455 0010 23       		.byte	(.L46-.L44)/2
 456 0011 35       		.byte	(.L42-.L44)/2
 457 0012 35       		.byte	(.L42-.L44)/2
 458 0013 35       		.byte	(.L42-.L44)/2
 459 0014 07       		.byte	(.L47-.L44)/2
 460 0015 00       		.p2align 1
 461              	.L47:
 462 0016 0368     		ldr	r3, [r0]
 463 0018 DA68     		ldr	r2, [r3, #12]
 464 001a 42F01002 		orr	r2, r2, #16
 465 001e DA60     		str	r2, [r3, #12]
 466              	.L48:
 467 0020 DA68     		ldr	r2, [r3, #12]
 468 0022 42F08002 		orr	r2, r2, #128
 469 0026 DA60     		str	r2, [r3, #12]
 470 0028 186A     		ldr	r0, [r3, #32]
 471 002a 0422     		movs	r2, #4
 472 002c 8A40     		lsls	r2, r2, r1
 473 002e 20EA0201 		bic	r1, r0, r2
 474 0032 1962     		str	r1, [r3, #32]
 475 0034 196A     		ldr	r1, [r3, #32]
 476 0036 0A43     		orrs	r2, r2, r1
 477 0038 1A62     		str	r2, [r3, #32]
 478 003a 5A6C     		ldr	r2, [r3, #68]
 479 003c 42F40042 		orr	r2, r2, #32768
 480 0040 5A64     		str	r2, [r3, #68]
 481 0042 1A68     		ldr	r2, [r3]
ARM GAS  /var/folders/_j/px34bss161g6w2_6fxy_byhh0000gn/T//cc3dXcWG.s 			page 9


 482 0044 42F00102 		orr	r2, r2, #1
 483 0048 1A60     		str	r2, [r3]
 484 004a 0020     		movs	r0, #0
 485 004c 7047     		bx	lr
 486              	.L46:
 487 004e 0368     		ldr	r3, [r0]
 488 0050 DA68     		ldr	r2, [r3, #12]
 489 0052 42F00802 		orr	r2, r2, #8
 490 0056 DA60     		str	r2, [r3, #12]
 491 0058 E2E7     		b	.L48
 492              	.L45:
 493 005a 0368     		ldr	r3, [r0]
 494 005c DA68     		ldr	r2, [r3, #12]
 495 005e 42F00402 		orr	r2, r2, #4
 496 0062 DA60     		str	r2, [r3, #12]
 497 0064 DCE7     		b	.L48
 498              	.L43:
 499 0066 0368     		ldr	r3, [r0]
 500 0068 DA68     		ldr	r2, [r3, #12]
 501 006a 42F00202 		orr	r2, r2, #2
 502 006e DA60     		str	r2, [r3, #12]
 503 0070 D6E7     		b	.L48
 504              	.L42:
 505 0072 0368     		ldr	r3, [r0]
 506 0074 D4E7     		b	.L48
 508 0076 00BF     		.section	.text.HAL_TIMEx_OCN_Stop_IT,"ax",%progbits
 509              		.align	2
 510              		.global	HAL_TIMEx_OCN_Stop_IT
 511              		.thumb
 512              		.thumb_func
 514              	HAL_TIMEx_OCN_Stop_IT:
 515              		@ args = 0, pretend = 0, frame = 0
 516              		@ frame_needed = 0, uses_anonymous_args = 0
 517              		@ link register save eliminated.
 518 0000 0C29     		cmp	r1, #12
 519 0002 4ED8     		bhi	.L50
 520 0004 DFE801F0 		tbb	[pc, r1]
 521              	.L52:
 522 0008 47       		.byte	(.L51-.L52)/2
 523 0009 4D       		.byte	(.L50-.L52)/2
 524 000a 4D       		.byte	(.L50-.L52)/2
 525 000b 4D       		.byte	(.L50-.L52)/2
 526 000c 41       		.byte	(.L53-.L52)/2
 527 000d 4D       		.byte	(.L50-.L52)/2
 528 000e 4D       		.byte	(.L50-.L52)/2
 529 000f 4D       		.byte	(.L50-.L52)/2
 530 0010 3B       		.byte	(.L54-.L52)/2
 531 0011 4D       		.byte	(.L50-.L52)/2
 532 0012 4D       		.byte	(.L50-.L52)/2
 533 0013 4D       		.byte	(.L50-.L52)/2
 534 0014 07       		.byte	(.L55-.L52)/2
 535 0015 00       		.p2align 1
 536              	.L55:
 537 0016 0368     		ldr	r3, [r0]
 538 0018 DA68     		ldr	r2, [r3, #12]
 539 001a 22F01002 		bic	r2, r2, #16
 540 001e DA60     		str	r2, [r3, #12]
ARM GAS  /var/folders/_j/px34bss161g6w2_6fxy_byhh0000gn/T//cc3dXcWG.s 			page 10


 541              	.L56:
 542 0020 186A     		ldr	r0, [r3, #32]
 543 0022 0422     		movs	r2, #4
 544 0024 8A40     		lsls	r2, r2, r1
 545 0026 20EA0202 		bic	r2, r0, r2
 546 002a 1A62     		str	r2, [r3, #32]
 547 002c 1A6A     		ldr	r2, [r3, #32]
 548 002e 1A62     		str	r2, [r3, #32]
 549 0030 196A     		ldr	r1, [r3, #32]
 550 0032 40F24442 		movw	r2, #1092
 551 0036 0A40     		ands	r2, r2, r1
 552 0038 1AB9     		cbnz	r2, .L57
 553 003a DA68     		ldr	r2, [r3, #12]
 554 003c 22F08002 		bic	r2, r2, #128
 555 0040 DA60     		str	r2, [r3, #12]
 556              	.L57:
 557 0042 196A     		ldr	r1, [r3, #32]
 558 0044 41F21112 		movw	r2, #4369
 559 0048 0A40     		ands	r2, r2, r1
 560 004a 42B9     		cbnz	r2, .L58
 561 004c 196A     		ldr	r1, [r3, #32]
 562 004e 40F24442 		movw	r2, #1092
 563 0052 0A40     		ands	r2, r2, r1
 564 0054 1AB9     		cbnz	r2, .L58
 565 0056 5A6C     		ldr	r2, [r3, #68]
 566 0058 22F40042 		bic	r2, r2, #32768
 567 005c 5A64     		str	r2, [r3, #68]
 568              	.L58:
 569 005e 196A     		ldr	r1, [r3, #32]
 570 0060 41F21112 		movw	r2, #4369
 571 0064 0A40     		ands	r2, r2, r1
 572 0066 42B9     		cbnz	r2, .L59
 573 0068 196A     		ldr	r1, [r3, #32]
 574 006a 40F24442 		movw	r2, #1092
 575 006e 0A40     		ands	r2, r2, r1
 576 0070 1AB9     		cbnz	r2, .L59
 577 0072 1A68     		ldr	r2, [r3]
 578 0074 22F00102 		bic	r2, r2, #1
 579 0078 1A60     		str	r2, [r3]
 580              	.L59:
 581 007a 0020     		movs	r0, #0
 582 007c 7047     		bx	lr
 583              	.L54:
 584 007e 0368     		ldr	r3, [r0]
 585 0080 DA68     		ldr	r2, [r3, #12]
 586 0082 22F00802 		bic	r2, r2, #8
 587 0086 DA60     		str	r2, [r3, #12]
 588 0088 CAE7     		b	.L56
 589              	.L53:
 590 008a 0368     		ldr	r3, [r0]
 591 008c DA68     		ldr	r2, [r3, #12]
 592 008e 22F00402 		bic	r2, r2, #4
 593 0092 DA60     		str	r2, [r3, #12]
 594 0094 C4E7     		b	.L56
 595              	.L51:
 596 0096 0368     		ldr	r3, [r0]
 597 0098 DA68     		ldr	r2, [r3, #12]
ARM GAS  /var/folders/_j/px34bss161g6w2_6fxy_byhh0000gn/T//cc3dXcWG.s 			page 11


 598 009a 22F00202 		bic	r2, r2, #2
 599 009e DA60     		str	r2, [r3, #12]
 600 00a0 BEE7     		b	.L56
 601              	.L50:
 602 00a2 0368     		ldr	r3, [r0]
 603 00a4 BCE7     		b	.L56
 605 00a6 00BF     		.section	.text.HAL_TIMEx_OCN_Start_DMA,"ax",%progbits
 606              		.align	2
 607              		.global	HAL_TIMEx_OCN_Start_DMA
 608              		.thumb
 609              		.thumb_func
 611              	HAL_TIMEx_OCN_Start_DMA:
 612              		@ args = 0, pretend = 0, frame = 0
 613              		@ frame_needed = 0, uses_anonymous_args = 0
 614 0000 F8B5     		push	{r3, r4, r5, r6, r7, lr}
 615 0002 90F83940 		ldrb	r4, [r0, #57]	@ zero_extendqisi2
 616 0006 E4B2     		uxtb	r4, r4
 617 0008 022C     		cmp	r4, #2
 618 000a 15D0     		beq	.L72
 619 000c 90F83940 		ldrb	r4, [r0, #57]	@ zero_extendqisi2
 620 0010 E4B2     		uxtb	r4, r4
 621 0012 012C     		cmp	r4, #1
 622 0014 0CD0     		beq	.L74
 623              	.L62:
 624 0016 0D46     		mov	r5, r1
 625 0018 0446     		mov	r4, r0
 626 001a 0C2D     		cmp	r5, #12
 627 001c 64D8     		bhi	.L64
 628 001e DFE805F0 		tbb	[pc, r5]
 629              	.L66:
 630 0022 0D       		.byte	(.L65-.L66)/2
 631 0023 63       		.byte	(.L64-.L66)/2
 632 0024 63       		.byte	(.L64-.L66)/2
 633 0025 63       		.byte	(.L64-.L66)/2
 634 0026 52       		.byte	(.L67-.L66)/2
 635 0027 63       		.byte	(.L64-.L66)/2
 636 0028 63       		.byte	(.L64-.L66)/2
 637 0029 63       		.byte	(.L64-.L66)/2
 638 002a 30       		.byte	(.L68-.L66)/2
 639 002b 63       		.byte	(.L64-.L66)/2
 640 002c 63       		.byte	(.L64-.L66)/2
 641 002d 63       		.byte	(.L64-.L66)/2
 642 002e 41       		.byte	(.L69-.L66)/2
 643 002f 00       		.p2align 1
 644              	.L74:
 645 0030 002A     		cmp	r2, #0
 646 0032 5BD1     		bne	.L63
 647 0034 002B     		cmp	r3, #0
 648 0036 59D0     		beq	.L63
 649              	.L72:
 650 0038 2046     		mov	r0, r4
 651 003a F8BD     		pop	{r3, r4, r5, r6, r7, pc}
 652              	.L65:
 653 003c 2668     		ldr	r6, [r4]
 654 003e 006A     		ldr	r0, [r0, #32]
 655 0040 2C49     		ldr	r1, .L75
 656 0042 2D4F     		ldr	r7, .L75+4
ARM GAS  /var/folders/_j/px34bss161g6w2_6fxy_byhh0000gn/T//cc3dXcWG.s 			page 12


 657 0044 C163     		str	r1, [r0, #60]
 658 0046 C764     		str	r7, [r0, #76]
 659 0048 1146     		mov	r1, r2
 660 004a 06F13402 		add	r2, r6, #52
 661 004e FFF7FEFF 		bl	HAL_DMA_Start_IT
 662 0052 2368     		ldr	r3, [r4]
 663 0054 DA68     		ldr	r2, [r3, #12]
 664 0056 42F40072 		orr	r2, r2, #512
 665 005a DA60     		str	r2, [r3, #12]
 666              	.L70:
 667 005c 186A     		ldr	r0, [r3, #32]
 668 005e 0422     		movs	r2, #4
 669 0060 AA40     		lsls	r2, r2, r5
 670 0062 20EA0201 		bic	r1, r0, r2
 671 0066 1962     		str	r1, [r3, #32]
 672 0068 196A     		ldr	r1, [r3, #32]
 673 006a 0A43     		orrs	r2, r2, r1
 674 006c 1A62     		str	r2, [r3, #32]
 675 006e 5A6C     		ldr	r2, [r3, #68]
 676 0070 42F40042 		orr	r2, r2, #32768
 677 0074 5A64     		str	r2, [r3, #68]
 678 0076 1A68     		ldr	r2, [r3]
 679 0078 42F00102 		orr	r2, r2, #1
 680 007c 1A60     		str	r2, [r3]
 681 007e 0020     		movs	r0, #0
 682 0080 F8BD     		pop	{r3, r4, r5, r6, r7, pc}
 683              	.L68:
 684 0082 2668     		ldr	r6, [r4]
 685 0084 806A     		ldr	r0, [r0, #40]
 686 0086 1B49     		ldr	r1, .L75
 687 0088 1B4F     		ldr	r7, .L75+4
 688 008a C163     		str	r1, [r0, #60]
 689 008c C764     		str	r7, [r0, #76]
 690 008e 1146     		mov	r1, r2
 691 0090 06F13C02 		add	r2, r6, #60
 692 0094 FFF7FEFF 		bl	HAL_DMA_Start_IT
 693 0098 2368     		ldr	r3, [r4]
 694 009a DA68     		ldr	r2, [r3, #12]
 695 009c 42F40062 		orr	r2, r2, #2048
 696 00a0 DA60     		str	r2, [r3, #12]
 697 00a2 DBE7     		b	.L70
 698              	.L69:
 699 00a4 2668     		ldr	r6, [r4]
 700 00a6 C06A     		ldr	r0, [r0, #44]
 701 00a8 1249     		ldr	r1, .L75
 702 00aa 134F     		ldr	r7, .L75+4
 703 00ac C163     		str	r1, [r0, #60]
 704 00ae C764     		str	r7, [r0, #76]
 705 00b0 1146     		mov	r1, r2
 706 00b2 06F14002 		add	r2, r6, #64
 707 00b6 FFF7FEFF 		bl	HAL_DMA_Start_IT
 708 00ba 2368     		ldr	r3, [r4]
 709 00bc DA68     		ldr	r2, [r3, #12]
 710 00be 42F48052 		orr	r2, r2, #4096
 711 00c2 DA60     		str	r2, [r3, #12]
 712 00c4 CAE7     		b	.L70
 713              	.L67:
ARM GAS  /var/folders/_j/px34bss161g6w2_6fxy_byhh0000gn/T//cc3dXcWG.s 			page 13


 714 00c6 2668     		ldr	r6, [r4]
 715 00c8 406A     		ldr	r0, [r0, #36]
 716 00ca 0A49     		ldr	r1, .L75
 717 00cc 0A4F     		ldr	r7, .L75+4
 718 00ce C163     		str	r1, [r0, #60]
 719 00d0 C764     		str	r7, [r0, #76]
 720 00d2 1146     		mov	r1, r2
 721 00d4 06F13802 		add	r2, r6, #56
 722 00d8 FFF7FEFF 		bl	HAL_DMA_Start_IT
 723 00dc 2368     		ldr	r3, [r4]
 724 00de DA68     		ldr	r2, [r3, #12]
 725 00e0 42F48062 		orr	r2, r2, #1024
 726 00e4 DA60     		str	r2, [r3, #12]
 727 00e6 B9E7     		b	.L70
 728              	.L64:
 729 00e8 0368     		ldr	r3, [r0]
 730 00ea B7E7     		b	.L70
 731              	.L63:
 732 00ec 0224     		movs	r4, #2
 733 00ee 80F83940 		strb	r4, [r0, #57]
 734 00f2 90E7     		b	.L62
 735              	.L76:
 736              		.align	2
 737              	.L75:
 738 00f4 00000000 		.word	TIM_DMADelayPulseCplt
 739 00f8 00000000 		.word	TIM_DMAError
 741              		.section	.text.HAL_TIMEx_OCN_Stop_DMA,"ax",%progbits
 742              		.align	2
 743              		.global	HAL_TIMEx_OCN_Stop_DMA
 744              		.thumb
 745              		.thumb_func
 747              	HAL_TIMEx_OCN_Stop_DMA:
 748              		@ args = 0, pretend = 0, frame = 0
 749              		@ frame_needed = 0, uses_anonymous_args = 0
 750              		@ link register save eliminated.
 751 0000 10B4     		push	{r4}
 752 0002 0C29     		cmp	r1, #12
 753 0004 4AD8     		bhi	.L78
 754 0006 DFE801F0 		tbb	[pc, r1]
 755              	.L80:
 756 000a 43       		.byte	(.L79-.L80)/2
 757 000b 49       		.byte	(.L78-.L80)/2
 758 000c 49       		.byte	(.L78-.L80)/2
 759 000d 49       		.byte	(.L78-.L80)/2
 760 000e 3D       		.byte	(.L81-.L80)/2
 761 000f 49       		.byte	(.L78-.L80)/2
 762 0010 49       		.byte	(.L78-.L80)/2
 763 0011 49       		.byte	(.L78-.L80)/2
 764 0012 37       		.byte	(.L82-.L80)/2
 765 0013 49       		.byte	(.L78-.L80)/2
 766 0014 49       		.byte	(.L78-.L80)/2
 767 0015 49       		.byte	(.L78-.L80)/2
 768 0016 07       		.byte	(.L83-.L80)/2
 769 0017 00       		.p2align 1
 770              	.L83:
 771 0018 0368     		ldr	r3, [r0]
 772 001a DA68     		ldr	r2, [r3, #12]
ARM GAS  /var/folders/_j/px34bss161g6w2_6fxy_byhh0000gn/T//cc3dXcWG.s 			page 14


 773 001c 22F48052 		bic	r2, r2, #4096
 774 0020 DA60     		str	r2, [r3, #12]
 775              	.L84:
 776 0022 1C6A     		ldr	r4, [r3, #32]
 777 0024 0422     		movs	r2, #4
 778 0026 8A40     		lsls	r2, r2, r1
 779 0028 24EA0202 		bic	r2, r4, r2
 780 002c 1A62     		str	r2, [r3, #32]
 781 002e 1A6A     		ldr	r2, [r3, #32]
 782 0030 1A62     		str	r2, [r3, #32]
 783 0032 196A     		ldr	r1, [r3, #32]
 784 0034 41F21112 		movw	r2, #4369
 785 0038 0A40     		ands	r2, r2, r1
 786 003a 42B9     		cbnz	r2, .L85
 787 003c 196A     		ldr	r1, [r3, #32]
 788 003e 40F24442 		movw	r2, #1092
 789 0042 0A40     		ands	r2, r2, r1
 790 0044 1AB9     		cbnz	r2, .L85
 791 0046 5A6C     		ldr	r2, [r3, #68]
 792 0048 22F40042 		bic	r2, r2, #32768
 793 004c 5A64     		str	r2, [r3, #68]
 794              	.L85:
 795 004e 196A     		ldr	r1, [r3, #32]
 796 0050 41F21112 		movw	r2, #4369
 797 0054 0A40     		ands	r2, r2, r1
 798 0056 42B9     		cbnz	r2, .L86
 799 0058 196A     		ldr	r1, [r3, #32]
 800 005a 40F24442 		movw	r2, #1092
 801 005e 0A40     		ands	r2, r2, r1
 802 0060 1AB9     		cbnz	r2, .L86
 803 0062 1A68     		ldr	r2, [r3]
 804 0064 22F00102 		bic	r2, r2, #1
 805 0068 1A60     		str	r2, [r3]
 806              	.L86:
 807 006a 0123     		movs	r3, #1
 808 006c 80F83930 		strb	r3, [r0, #57]
 809 0070 5DF8044B 		ldr	r4, [sp], #4
 810 0074 0020     		movs	r0, #0
 811 0076 7047     		bx	lr
 812              	.L82:
 813 0078 0368     		ldr	r3, [r0]
 814 007a DA68     		ldr	r2, [r3, #12]
 815 007c 22F40062 		bic	r2, r2, #2048
 816 0080 DA60     		str	r2, [r3, #12]
 817 0082 CEE7     		b	.L84
 818              	.L81:
 819 0084 0368     		ldr	r3, [r0]
 820 0086 DA68     		ldr	r2, [r3, #12]
 821 0088 22F48062 		bic	r2, r2, #1024
 822 008c DA60     		str	r2, [r3, #12]
 823 008e C8E7     		b	.L84
 824              	.L79:
 825 0090 0368     		ldr	r3, [r0]
 826 0092 DA68     		ldr	r2, [r3, #12]
 827 0094 22F40072 		bic	r2, r2, #512
 828 0098 DA60     		str	r2, [r3, #12]
 829 009a C2E7     		b	.L84
ARM GAS  /var/folders/_j/px34bss161g6w2_6fxy_byhh0000gn/T//cc3dXcWG.s 			page 15


 830              	.L78:
 831 009c 0368     		ldr	r3, [r0]
 832 009e C0E7     		b	.L84
 834              		.section	.text.HAL_TIMEx_PWMN_Start,"ax",%progbits
 835              		.align	2
 836              		.global	HAL_TIMEx_PWMN_Start
 837              		.thumb
 838              		.thumb_func
 840              	HAL_TIMEx_PWMN_Start:
 841              		@ args = 0, pretend = 0, frame = 0
 842              		@ frame_needed = 0, uses_anonymous_args = 0
 843              		@ link register save eliminated.
 844 0000 0368     		ldr	r3, [r0]
 845 0002 0422     		movs	r2, #4
 846 0004 186A     		ldr	r0, [r3, #32]
 847 0006 8A40     		lsls	r2, r2, r1
 848 0008 20EA0200 		bic	r0, r0, r2
 849 000c 1862     		str	r0, [r3, #32]
 850 000e 196A     		ldr	r1, [r3, #32]
 851 0010 0A43     		orrs	r2, r2, r1
 852 0012 1A62     		str	r2, [r3, #32]
 853 0014 5A6C     		ldr	r2, [r3, #68]
 854 0016 42F40042 		orr	r2, r2, #32768
 855 001a 5A64     		str	r2, [r3, #68]
 856 001c 1A68     		ldr	r2, [r3]
 857 001e 42F00102 		orr	r2, r2, #1
 858 0022 1A60     		str	r2, [r3]
 859 0024 0020     		movs	r0, #0
 860 0026 7047     		bx	lr
 862              		.section	.text.HAL_TIMEx_PWMN_Stop,"ax",%progbits
 863              		.align	2
 864              		.global	HAL_TIMEx_PWMN_Stop
 865              		.thumb
 866              		.thumb_func
 868              	HAL_TIMEx_PWMN_Stop:
 869              		@ args = 0, pretend = 0, frame = 0
 870              		@ frame_needed = 0, uses_anonymous_args = 0
 871              		@ link register save eliminated.
 872 0000 0368     		ldr	r3, [r0]
 873 0002 0420     		movs	r0, #4
 874 0004 1A6A     		ldr	r2, [r3, #32]
 875 0006 8840     		lsls	r0, r0, r1
 876 0008 22EA0002 		bic	r2, r2, r0
 877 000c 1A62     		str	r2, [r3, #32]
 878 000e 1A6A     		ldr	r2, [r3, #32]
 879 0010 1A62     		str	r2, [r3, #32]
 880 0012 196A     		ldr	r1, [r3, #32]
 881 0014 41F21112 		movw	r2, #4369
 882 0018 0A40     		ands	r2, r2, r1
 883 001a 22B9     		cbnz	r2, .L90
 884 001c 196A     		ldr	r1, [r3, #32]
 885 001e 40F24442 		movw	r2, #1092
 886 0022 0A40     		ands	r2, r2, r1
 887 0024 7AB1     		cbz	r2, .L92
 888              	.L90:
 889 0026 196A     		ldr	r1, [r3, #32]
 890 0028 41F21112 		movw	r2, #4369
ARM GAS  /var/folders/_j/px34bss161g6w2_6fxy_byhh0000gn/T//cc3dXcWG.s 			page 16


 891 002c 0A40     		ands	r2, r2, r1
 892 002e 42B9     		cbnz	r2, .L91
 893 0030 196A     		ldr	r1, [r3, #32]
 894 0032 40F24442 		movw	r2, #1092
 895 0036 0A40     		ands	r2, r2, r1
 896 0038 1AB9     		cbnz	r2, .L91
 897 003a 1A68     		ldr	r2, [r3]
 898 003c 22F00102 		bic	r2, r2, #1
 899 0040 1A60     		str	r2, [r3]
 900              	.L91:
 901 0042 0020     		movs	r0, #0
 902 0044 7047     		bx	lr
 903              	.L92:
 904 0046 5A6C     		ldr	r2, [r3, #68]
 905 0048 22F40042 		bic	r2, r2, #32768
 906 004c 5A64     		str	r2, [r3, #68]
 907 004e EAE7     		b	.L90
 909              		.section	.text.HAL_TIMEx_PWMN_Start_IT,"ax",%progbits
 910              		.align	2
 911              		.global	HAL_TIMEx_PWMN_Start_IT
 912              		.thumb
 913              		.thumb_func
 915              	HAL_TIMEx_PWMN_Start_IT:
 916              		@ args = 0, pretend = 0, frame = 0
 917              		@ frame_needed = 0, uses_anonymous_args = 0
 918              		@ link register save eliminated.
 919 0000 0C29     		cmp	r1, #12
 920 0002 36D8     		bhi	.L94
 921 0004 DFE801F0 		tbb	[pc, r1]
 922              	.L96:
 923 0008 2F       		.byte	(.L95-.L96)/2
 924 0009 35       		.byte	(.L94-.L96)/2
 925 000a 35       		.byte	(.L94-.L96)/2
 926 000b 35       		.byte	(.L94-.L96)/2
 927 000c 29       		.byte	(.L97-.L96)/2
 928 000d 35       		.byte	(.L94-.L96)/2
 929 000e 35       		.byte	(.L94-.L96)/2
 930 000f 35       		.byte	(.L94-.L96)/2
 931 0010 23       		.byte	(.L98-.L96)/2
 932 0011 35       		.byte	(.L94-.L96)/2
 933 0012 35       		.byte	(.L94-.L96)/2
 934 0013 35       		.byte	(.L94-.L96)/2
 935 0014 07       		.byte	(.L99-.L96)/2
 936 0015 00       		.p2align 1
 937              	.L99:
 938 0016 0368     		ldr	r3, [r0]
 939 0018 DA68     		ldr	r2, [r3, #12]
 940 001a 42F01002 		orr	r2, r2, #16
 941 001e DA60     		str	r2, [r3, #12]
 942              	.L100:
 943 0020 DA68     		ldr	r2, [r3, #12]
 944 0022 42F08002 		orr	r2, r2, #128
 945 0026 DA60     		str	r2, [r3, #12]
 946 0028 186A     		ldr	r0, [r3, #32]
 947 002a 0422     		movs	r2, #4
 948 002c 8A40     		lsls	r2, r2, r1
 949 002e 20EA0201 		bic	r1, r0, r2
ARM GAS  /var/folders/_j/px34bss161g6w2_6fxy_byhh0000gn/T//cc3dXcWG.s 			page 17


 950 0032 1962     		str	r1, [r3, #32]
 951 0034 196A     		ldr	r1, [r3, #32]
 952 0036 0A43     		orrs	r2, r2, r1
 953 0038 1A62     		str	r2, [r3, #32]
 954 003a 5A6C     		ldr	r2, [r3, #68]
 955 003c 42F40042 		orr	r2, r2, #32768
 956 0040 5A64     		str	r2, [r3, #68]
 957 0042 1A68     		ldr	r2, [r3]
 958 0044 42F00102 		orr	r2, r2, #1
 959 0048 1A60     		str	r2, [r3]
 960 004a 0020     		movs	r0, #0
 961 004c 7047     		bx	lr
 962              	.L98:
 963 004e 0368     		ldr	r3, [r0]
 964 0050 DA68     		ldr	r2, [r3, #12]
 965 0052 42F00802 		orr	r2, r2, #8
 966 0056 DA60     		str	r2, [r3, #12]
 967 0058 E2E7     		b	.L100
 968              	.L97:
 969 005a 0368     		ldr	r3, [r0]
 970 005c DA68     		ldr	r2, [r3, #12]
 971 005e 42F00402 		orr	r2, r2, #4
 972 0062 DA60     		str	r2, [r3, #12]
 973 0064 DCE7     		b	.L100
 974              	.L95:
 975 0066 0368     		ldr	r3, [r0]
 976 0068 DA68     		ldr	r2, [r3, #12]
 977 006a 42F00202 		orr	r2, r2, #2
 978 006e DA60     		str	r2, [r3, #12]
 979 0070 D6E7     		b	.L100
 980              	.L94:
 981 0072 0368     		ldr	r3, [r0]
 982 0074 D4E7     		b	.L100
 984 0076 00BF     		.section	.text.HAL_TIMEx_PWMN_Stop_IT,"ax",%progbits
 985              		.align	2
 986              		.global	HAL_TIMEx_PWMN_Stop_IT
 987              		.thumb
 988              		.thumb_func
 990              	HAL_TIMEx_PWMN_Stop_IT:
 991              		@ args = 0, pretend = 0, frame = 0
 992              		@ frame_needed = 0, uses_anonymous_args = 0
 993              		@ link register save eliminated.
 994 0000 0C29     		cmp	r1, #12
 995 0002 4ED8     		bhi	.L102
 996 0004 DFE801F0 		tbb	[pc, r1]
 997              	.L104:
 998 0008 47       		.byte	(.L103-.L104)/2
 999 0009 4D       		.byte	(.L102-.L104)/2
 1000 000a 4D       		.byte	(.L102-.L104)/2
 1001 000b 4D       		.byte	(.L102-.L104)/2
 1002 000c 41       		.byte	(.L105-.L104)/2
 1003 000d 4D       		.byte	(.L102-.L104)/2
 1004 000e 4D       		.byte	(.L102-.L104)/2
 1005 000f 4D       		.byte	(.L102-.L104)/2
 1006 0010 3B       		.byte	(.L106-.L104)/2
 1007 0011 4D       		.byte	(.L102-.L104)/2
 1008 0012 4D       		.byte	(.L102-.L104)/2
ARM GAS  /var/folders/_j/px34bss161g6w2_6fxy_byhh0000gn/T//cc3dXcWG.s 			page 18


 1009 0013 4D       		.byte	(.L102-.L104)/2
 1010 0014 07       		.byte	(.L107-.L104)/2
 1011 0015 00       		.p2align 1
 1012              	.L107:
 1013 0016 0368     		ldr	r3, [r0]
 1014 0018 DA68     		ldr	r2, [r3, #12]
 1015 001a 22F01002 		bic	r2, r2, #16
 1016 001e DA60     		str	r2, [r3, #12]
 1017              	.L108:
 1018 0020 186A     		ldr	r0, [r3, #32]
 1019 0022 0422     		movs	r2, #4
 1020 0024 8A40     		lsls	r2, r2, r1
 1021 0026 20EA0202 		bic	r2, r0, r2
 1022 002a 1A62     		str	r2, [r3, #32]
 1023 002c 1A6A     		ldr	r2, [r3, #32]
 1024 002e 1A62     		str	r2, [r3, #32]
 1025 0030 196A     		ldr	r1, [r3, #32]
 1026 0032 40F24442 		movw	r2, #1092
 1027 0036 0A40     		ands	r2, r2, r1
 1028 0038 1AB9     		cbnz	r2, .L109
 1029 003a DA68     		ldr	r2, [r3, #12]
 1030 003c 22F08002 		bic	r2, r2, #128
 1031 0040 DA60     		str	r2, [r3, #12]
 1032              	.L109:
 1033 0042 196A     		ldr	r1, [r3, #32]
 1034 0044 41F21112 		movw	r2, #4369
 1035 0048 0A40     		ands	r2, r2, r1
 1036 004a 42B9     		cbnz	r2, .L110
 1037 004c 196A     		ldr	r1, [r3, #32]
 1038 004e 40F24442 		movw	r2, #1092
 1039 0052 0A40     		ands	r2, r2, r1
 1040 0054 1AB9     		cbnz	r2, .L110
 1041 0056 5A6C     		ldr	r2, [r3, #68]
 1042 0058 22F40042 		bic	r2, r2, #32768
 1043 005c 5A64     		str	r2, [r3, #68]
 1044              	.L110:
 1045 005e 196A     		ldr	r1, [r3, #32]
 1046 0060 41F21112 		movw	r2, #4369
 1047 0064 0A40     		ands	r2, r2, r1
 1048 0066 42B9     		cbnz	r2, .L111
 1049 0068 196A     		ldr	r1, [r3, #32]
 1050 006a 40F24442 		movw	r2, #1092
 1051 006e 0A40     		ands	r2, r2, r1
 1052 0070 1AB9     		cbnz	r2, .L111
 1053 0072 1A68     		ldr	r2, [r3]
 1054 0074 22F00102 		bic	r2, r2, #1
 1055 0078 1A60     		str	r2, [r3]
 1056              	.L111:
 1057 007a 0020     		movs	r0, #0
 1058 007c 7047     		bx	lr
 1059              	.L106:
 1060 007e 0368     		ldr	r3, [r0]
 1061 0080 DA68     		ldr	r2, [r3, #12]
 1062 0082 22F00802 		bic	r2, r2, #8
 1063 0086 DA60     		str	r2, [r3, #12]
 1064 0088 CAE7     		b	.L108
 1065              	.L105:
ARM GAS  /var/folders/_j/px34bss161g6w2_6fxy_byhh0000gn/T//cc3dXcWG.s 			page 19


 1066 008a 0368     		ldr	r3, [r0]
 1067 008c DA68     		ldr	r2, [r3, #12]
 1068 008e 22F00402 		bic	r2, r2, #4
 1069 0092 DA60     		str	r2, [r3, #12]
 1070 0094 C4E7     		b	.L108
 1071              	.L103:
 1072 0096 0368     		ldr	r3, [r0]
 1073 0098 DA68     		ldr	r2, [r3, #12]
 1074 009a 22F00202 		bic	r2, r2, #2
 1075 009e DA60     		str	r2, [r3, #12]
 1076 00a0 BEE7     		b	.L108
 1077              	.L102:
 1078 00a2 0368     		ldr	r3, [r0]
 1079 00a4 BCE7     		b	.L108
 1081 00a6 00BF     		.section	.text.HAL_TIMEx_PWMN_Start_DMA,"ax",%progbits
 1082              		.align	2
 1083              		.global	HAL_TIMEx_PWMN_Start_DMA
 1084              		.thumb
 1085              		.thumb_func
 1087              	HAL_TIMEx_PWMN_Start_DMA:
 1088              		@ args = 0, pretend = 0, frame = 0
 1089              		@ frame_needed = 0, uses_anonymous_args = 0
 1090 0000 F8B5     		push	{r3, r4, r5, r6, r7, lr}
 1091 0002 90F83940 		ldrb	r4, [r0, #57]	@ zero_extendqisi2
 1092 0006 E4B2     		uxtb	r4, r4
 1093 0008 022C     		cmp	r4, #2
 1094 000a 15D0     		beq	.L124
 1095 000c 90F83940 		ldrb	r4, [r0, #57]	@ zero_extendqisi2
 1096 0010 E4B2     		uxtb	r4, r4
 1097 0012 012C     		cmp	r4, #1
 1098 0014 0CD0     		beq	.L126
 1099              	.L114:
 1100 0016 0D46     		mov	r5, r1
 1101 0018 0446     		mov	r4, r0
 1102 001a 0C2D     		cmp	r5, #12
 1103 001c 64D8     		bhi	.L116
 1104 001e DFE805F0 		tbb	[pc, r5]
 1105              	.L118:
 1106 0022 0D       		.byte	(.L117-.L118)/2
 1107 0023 63       		.byte	(.L116-.L118)/2
 1108 0024 63       		.byte	(.L116-.L118)/2
 1109 0025 63       		.byte	(.L116-.L118)/2
 1110 0026 52       		.byte	(.L119-.L118)/2
 1111 0027 63       		.byte	(.L116-.L118)/2
 1112 0028 63       		.byte	(.L116-.L118)/2
 1113 0029 63       		.byte	(.L116-.L118)/2
 1114 002a 30       		.byte	(.L120-.L118)/2
 1115 002b 63       		.byte	(.L116-.L118)/2
 1116 002c 63       		.byte	(.L116-.L118)/2
 1117 002d 63       		.byte	(.L116-.L118)/2
 1118 002e 41       		.byte	(.L121-.L118)/2
 1119 002f 00       		.p2align 1
 1120              	.L126:
 1121 0030 002A     		cmp	r2, #0
 1122 0032 5BD1     		bne	.L115
 1123 0034 002B     		cmp	r3, #0
 1124 0036 59D0     		beq	.L115
ARM GAS  /var/folders/_j/px34bss161g6w2_6fxy_byhh0000gn/T//cc3dXcWG.s 			page 20


 1125              	.L124:
 1126 0038 2046     		mov	r0, r4
 1127 003a F8BD     		pop	{r3, r4, r5, r6, r7, pc}
 1128              	.L117:
 1129 003c 2668     		ldr	r6, [r4]
 1130 003e 006A     		ldr	r0, [r0, #32]
 1131 0040 2C49     		ldr	r1, .L127
 1132 0042 2D4F     		ldr	r7, .L127+4
 1133 0044 C163     		str	r1, [r0, #60]
 1134 0046 C764     		str	r7, [r0, #76]
 1135 0048 1146     		mov	r1, r2
 1136 004a 06F13402 		add	r2, r6, #52
 1137 004e FFF7FEFF 		bl	HAL_DMA_Start_IT
 1138 0052 2368     		ldr	r3, [r4]
 1139 0054 DA68     		ldr	r2, [r3, #12]
 1140 0056 42F40072 		orr	r2, r2, #512
 1141 005a DA60     		str	r2, [r3, #12]
 1142              	.L122:
 1143 005c 186A     		ldr	r0, [r3, #32]
 1144 005e 0422     		movs	r2, #4
 1145 0060 AA40     		lsls	r2, r2, r5
 1146 0062 20EA0201 		bic	r1, r0, r2
 1147 0066 1962     		str	r1, [r3, #32]
 1148 0068 196A     		ldr	r1, [r3, #32]
 1149 006a 0A43     		orrs	r2, r2, r1
 1150 006c 1A62     		str	r2, [r3, #32]
 1151 006e 5A6C     		ldr	r2, [r3, #68]
 1152 0070 42F40042 		orr	r2, r2, #32768
 1153 0074 5A64     		str	r2, [r3, #68]
 1154 0076 1A68     		ldr	r2, [r3]
 1155 0078 42F00102 		orr	r2, r2, #1
 1156 007c 1A60     		str	r2, [r3]
 1157 007e 0020     		movs	r0, #0
 1158 0080 F8BD     		pop	{r3, r4, r5, r6, r7, pc}
 1159              	.L120:
 1160 0082 2668     		ldr	r6, [r4]
 1161 0084 806A     		ldr	r0, [r0, #40]
 1162 0086 1B49     		ldr	r1, .L127
 1163 0088 1B4F     		ldr	r7, .L127+4
 1164 008a C163     		str	r1, [r0, #60]
 1165 008c C764     		str	r7, [r0, #76]
 1166 008e 1146     		mov	r1, r2
 1167 0090 06F13C02 		add	r2, r6, #60
 1168 0094 FFF7FEFF 		bl	HAL_DMA_Start_IT
 1169 0098 2368     		ldr	r3, [r4]
 1170 009a DA68     		ldr	r2, [r3, #12]
 1171 009c 42F40062 		orr	r2, r2, #2048
 1172 00a0 DA60     		str	r2, [r3, #12]
 1173 00a2 DBE7     		b	.L122
 1174              	.L121:
 1175 00a4 2668     		ldr	r6, [r4]
 1176 00a6 C06A     		ldr	r0, [r0, #44]
 1177 00a8 1249     		ldr	r1, .L127
 1178 00aa 134F     		ldr	r7, .L127+4
 1179 00ac C163     		str	r1, [r0, #60]
 1180 00ae C764     		str	r7, [r0, #76]
 1181 00b0 1146     		mov	r1, r2
ARM GAS  /var/folders/_j/px34bss161g6w2_6fxy_byhh0000gn/T//cc3dXcWG.s 			page 21


 1182 00b2 06F14002 		add	r2, r6, #64
 1183 00b6 FFF7FEFF 		bl	HAL_DMA_Start_IT
 1184 00ba 2368     		ldr	r3, [r4]
 1185 00bc DA68     		ldr	r2, [r3, #12]
 1186 00be 42F48052 		orr	r2, r2, #4096
 1187 00c2 DA60     		str	r2, [r3, #12]
 1188 00c4 CAE7     		b	.L122
 1189              	.L119:
 1190 00c6 2668     		ldr	r6, [r4]
 1191 00c8 406A     		ldr	r0, [r0, #36]
 1192 00ca 0A49     		ldr	r1, .L127
 1193 00cc 0A4F     		ldr	r7, .L127+4
 1194 00ce C163     		str	r1, [r0, #60]
 1195 00d0 C764     		str	r7, [r0, #76]
 1196 00d2 1146     		mov	r1, r2
 1197 00d4 06F13802 		add	r2, r6, #56
 1198 00d8 FFF7FEFF 		bl	HAL_DMA_Start_IT
 1199 00dc 2368     		ldr	r3, [r4]
 1200 00de DA68     		ldr	r2, [r3, #12]
 1201 00e0 42F48062 		orr	r2, r2, #1024
 1202 00e4 DA60     		str	r2, [r3, #12]
 1203 00e6 B9E7     		b	.L122
 1204              	.L116:
 1205 00e8 0368     		ldr	r3, [r0]
 1206 00ea B7E7     		b	.L122
 1207              	.L115:
 1208 00ec 0224     		movs	r4, #2
 1209 00ee 80F83940 		strb	r4, [r0, #57]
 1210 00f2 90E7     		b	.L114
 1211              	.L128:
 1212              		.align	2
 1213              	.L127:
 1214 00f4 00000000 		.word	TIM_DMADelayPulseCplt
 1215 00f8 00000000 		.word	TIM_DMAError
 1217              		.section	.text.HAL_TIMEx_PWMN_Stop_DMA,"ax",%progbits
 1218              		.align	2
 1219              		.global	HAL_TIMEx_PWMN_Stop_DMA
 1220              		.thumb
 1221              		.thumb_func
 1223              	HAL_TIMEx_PWMN_Stop_DMA:
 1224              		@ args = 0, pretend = 0, frame = 0
 1225              		@ frame_needed = 0, uses_anonymous_args = 0
 1226              		@ link register save eliminated.
 1227 0000 10B4     		push	{r4}
 1228 0002 0C29     		cmp	r1, #12
 1229 0004 4AD8     		bhi	.L130
 1230 0006 DFE801F0 		tbb	[pc, r1]
 1231              	.L132:
 1232 000a 43       		.byte	(.L131-.L132)/2
 1233 000b 49       		.byte	(.L130-.L132)/2
 1234 000c 49       		.byte	(.L130-.L132)/2
 1235 000d 49       		.byte	(.L130-.L132)/2
 1236 000e 3D       		.byte	(.L133-.L132)/2
 1237 000f 49       		.byte	(.L130-.L132)/2
 1238 0010 49       		.byte	(.L130-.L132)/2
 1239 0011 49       		.byte	(.L130-.L132)/2
 1240 0012 37       		.byte	(.L134-.L132)/2
ARM GAS  /var/folders/_j/px34bss161g6w2_6fxy_byhh0000gn/T//cc3dXcWG.s 			page 22


 1241 0013 49       		.byte	(.L130-.L132)/2
 1242 0014 49       		.byte	(.L130-.L132)/2
 1243 0015 49       		.byte	(.L130-.L132)/2
 1244 0016 07       		.byte	(.L135-.L132)/2
 1245 0017 00       		.p2align 1
 1246              	.L135:
 1247 0018 0368     		ldr	r3, [r0]
 1248 001a DA68     		ldr	r2, [r3, #12]
 1249 001c 22F48052 		bic	r2, r2, #4096
 1250 0020 DA60     		str	r2, [r3, #12]
 1251              	.L136:
 1252 0022 1C6A     		ldr	r4, [r3, #32]
 1253 0024 0422     		movs	r2, #4
 1254 0026 8A40     		lsls	r2, r2, r1
 1255 0028 24EA0202 		bic	r2, r4, r2
 1256 002c 1A62     		str	r2, [r3, #32]
 1257 002e 1A6A     		ldr	r2, [r3, #32]
 1258 0030 1A62     		str	r2, [r3, #32]
 1259 0032 196A     		ldr	r1, [r3, #32]
 1260 0034 41F21112 		movw	r2, #4369
 1261 0038 0A40     		ands	r2, r2, r1
 1262 003a 42B9     		cbnz	r2, .L137
 1263 003c 196A     		ldr	r1, [r3, #32]
 1264 003e 40F24442 		movw	r2, #1092
 1265 0042 0A40     		ands	r2, r2, r1
 1266 0044 1AB9     		cbnz	r2, .L137
 1267 0046 5A6C     		ldr	r2, [r3, #68]
 1268 0048 22F40042 		bic	r2, r2, #32768
 1269 004c 5A64     		str	r2, [r3, #68]
 1270              	.L137:
 1271 004e 196A     		ldr	r1, [r3, #32]
 1272 0050 41F21112 		movw	r2, #4369
 1273 0054 0A40     		ands	r2, r2, r1
 1274 0056 42B9     		cbnz	r2, .L138
 1275 0058 196A     		ldr	r1, [r3, #32]
 1276 005a 40F24442 		movw	r2, #1092
 1277 005e 0A40     		ands	r2, r2, r1
 1278 0060 1AB9     		cbnz	r2, .L138
 1279 0062 1A68     		ldr	r2, [r3]
 1280 0064 22F00102 		bic	r2, r2, #1
 1281 0068 1A60     		str	r2, [r3]
 1282              	.L138:
 1283 006a 0123     		movs	r3, #1
 1284 006c 80F83930 		strb	r3, [r0, #57]
 1285 0070 5DF8044B 		ldr	r4, [sp], #4
 1286 0074 0020     		movs	r0, #0
 1287 0076 7047     		bx	lr
 1288              	.L134:
 1289 0078 0368     		ldr	r3, [r0]
 1290 007a DA68     		ldr	r2, [r3, #12]
 1291 007c 22F40062 		bic	r2, r2, #2048
 1292 0080 DA60     		str	r2, [r3, #12]
 1293 0082 CEE7     		b	.L136
 1294              	.L133:
 1295 0084 0368     		ldr	r3, [r0]
 1296 0086 DA68     		ldr	r2, [r3, #12]
 1297 0088 22F48062 		bic	r2, r2, #1024
ARM GAS  /var/folders/_j/px34bss161g6w2_6fxy_byhh0000gn/T//cc3dXcWG.s 			page 23


 1298 008c DA60     		str	r2, [r3, #12]
 1299 008e C8E7     		b	.L136
 1300              	.L131:
 1301 0090 0368     		ldr	r3, [r0]
 1302 0092 DA68     		ldr	r2, [r3, #12]
 1303 0094 22F40072 		bic	r2, r2, #512
 1304 0098 DA60     		str	r2, [r3, #12]
 1305 009a C2E7     		b	.L136
 1306              	.L130:
 1307 009c 0368     		ldr	r3, [r0]
 1308 009e C0E7     		b	.L136
 1310              		.section	.text.HAL_TIMEx_OnePulseN_Start,"ax",%progbits
 1311              		.align	2
 1312              		.global	HAL_TIMEx_OnePulseN_Start
 1313              		.thumb
 1314              		.thumb_func
 1316              	HAL_TIMEx_OnePulseN_Start:
 1317              		@ args = 0, pretend = 0, frame = 0
 1318              		@ frame_needed = 0, uses_anonymous_args = 0
 1319              		@ link register save eliminated.
 1320 0000 0368     		ldr	r3, [r0]
 1321 0002 0422     		movs	r2, #4
 1322 0004 186A     		ldr	r0, [r3, #32]
 1323 0006 8A40     		lsls	r2, r2, r1
 1324 0008 20EA0200 		bic	r0, r0, r2
 1325 000c 1862     		str	r0, [r3, #32]
 1326 000e 196A     		ldr	r1, [r3, #32]
 1327 0010 0A43     		orrs	r2, r2, r1
 1328 0012 1A62     		str	r2, [r3, #32]
 1329 0014 5A6C     		ldr	r2, [r3, #68]
 1330 0016 42F40042 		orr	r2, r2, #32768
 1331 001a 5A64     		str	r2, [r3, #68]
 1332 001c 0020     		movs	r0, #0
 1333 001e 7047     		bx	lr
 1335              		.section	.text.HAL_TIMEx_OnePulseN_Stop,"ax",%progbits
 1336              		.align	2
 1337              		.global	HAL_TIMEx_OnePulseN_Stop
 1338              		.thumb
 1339              		.thumb_func
 1341              	HAL_TIMEx_OnePulseN_Stop:
 1342              		@ args = 0, pretend = 0, frame = 0
 1343              		@ frame_needed = 0, uses_anonymous_args = 0
 1344              		@ link register save eliminated.
 1345 0000 0368     		ldr	r3, [r0]
 1346 0002 0420     		movs	r0, #4
 1347 0004 1A6A     		ldr	r2, [r3, #32]
 1348 0006 8840     		lsls	r0, r0, r1
 1349 0008 22EA0002 		bic	r2, r2, r0
 1350 000c 1A62     		str	r2, [r3, #32]
 1351 000e 1A6A     		ldr	r2, [r3, #32]
 1352 0010 1A62     		str	r2, [r3, #32]
 1353 0012 196A     		ldr	r1, [r3, #32]
 1354 0014 41F21112 		movw	r2, #4369
 1355 0018 0A40     		ands	r2, r2, r1
 1356 001a 22B9     		cbnz	r2, .L142
 1357 001c 196A     		ldr	r1, [r3, #32]
 1358 001e 40F24442 		movw	r2, #1092
ARM GAS  /var/folders/_j/px34bss161g6w2_6fxy_byhh0000gn/T//cc3dXcWG.s 			page 24


 1359 0022 0A40     		ands	r2, r2, r1
 1360 0024 7AB1     		cbz	r2, .L144
 1361              	.L142:
 1362 0026 196A     		ldr	r1, [r3, #32]
 1363 0028 41F21112 		movw	r2, #4369
 1364 002c 0A40     		ands	r2, r2, r1
 1365 002e 42B9     		cbnz	r2, .L143
 1366 0030 196A     		ldr	r1, [r3, #32]
 1367 0032 40F24442 		movw	r2, #1092
 1368 0036 0A40     		ands	r2, r2, r1
 1369 0038 1AB9     		cbnz	r2, .L143
 1370 003a 1A68     		ldr	r2, [r3]
 1371 003c 22F00102 		bic	r2, r2, #1
 1372 0040 1A60     		str	r2, [r3]
 1373              	.L143:
 1374 0042 0020     		movs	r0, #0
 1375 0044 7047     		bx	lr
 1376              	.L144:
 1377 0046 5A6C     		ldr	r2, [r3, #68]
 1378 0048 22F40042 		bic	r2, r2, #32768
 1379 004c 5A64     		str	r2, [r3, #68]
 1380 004e EAE7     		b	.L142
 1382              		.section	.text.HAL_TIMEx_OnePulseN_Start_IT,"ax",%progbits
 1383              		.align	2
 1384              		.global	HAL_TIMEx_OnePulseN_Start_IT
 1385              		.thumb
 1386              		.thumb_func
 1388              	HAL_TIMEx_OnePulseN_Start_IT:
 1389              		@ args = 0, pretend = 0, frame = 0
 1390              		@ frame_needed = 0, uses_anonymous_args = 0
 1391              		@ link register save eliminated.
 1392 0000 0368     		ldr	r3, [r0]
 1393 0002 DA68     		ldr	r2, [r3, #12]
 1394 0004 42F00202 		orr	r2, r2, #2
 1395 0008 DA60     		str	r2, [r3, #12]
 1396 000a DA68     		ldr	r2, [r3, #12]
 1397 000c 42F00402 		orr	r2, r2, #4
 1398 0010 DA60     		str	r2, [r3, #12]
 1399 0012 186A     		ldr	r0, [r3, #32]
 1400 0014 0422     		movs	r2, #4
 1401 0016 8A40     		lsls	r2, r2, r1
 1402 0018 20EA0200 		bic	r0, r0, r2
 1403 001c 1862     		str	r0, [r3, #32]
 1404 001e 196A     		ldr	r1, [r3, #32]
 1405 0020 0A43     		orrs	r2, r2, r1
 1406 0022 1A62     		str	r2, [r3, #32]
 1407 0024 5A6C     		ldr	r2, [r3, #68]
 1408 0026 42F40042 		orr	r2, r2, #32768
 1409 002a 5A64     		str	r2, [r3, #68]
 1410 002c 0020     		movs	r0, #0
 1411 002e 7047     		bx	lr
 1413              		.section	.text.HAL_TIMEx_OnePulseN_Stop_IT,"ax",%progbits
 1414              		.align	2
 1415              		.global	HAL_TIMEx_OnePulseN_Stop_IT
 1416              		.thumb
 1417              		.thumb_func
 1419              	HAL_TIMEx_OnePulseN_Stop_IT:
ARM GAS  /var/folders/_j/px34bss161g6w2_6fxy_byhh0000gn/T//cc3dXcWG.s 			page 25


 1420              		@ args = 0, pretend = 0, frame = 0
 1421              		@ frame_needed = 0, uses_anonymous_args = 0
 1422              		@ link register save eliminated.
 1423 0000 0368     		ldr	r3, [r0]
 1424 0002 DA68     		ldr	r2, [r3, #12]
 1425 0004 22F00202 		bic	r2, r2, #2
 1426 0008 DA60     		str	r2, [r3, #12]
 1427 000a DA68     		ldr	r2, [r3, #12]
 1428 000c 22F00402 		bic	r2, r2, #4
 1429 0010 DA60     		str	r2, [r3, #12]
 1430 0012 1A6A     		ldr	r2, [r3, #32]
 1431 0014 0420     		movs	r0, #4
 1432 0016 8840     		lsls	r0, r0, r1
 1433 0018 22EA0002 		bic	r2, r2, r0
 1434 001c 1A62     		str	r2, [r3, #32]
 1435 001e 1A6A     		ldr	r2, [r3, #32]
 1436 0020 1A62     		str	r2, [r3, #32]
 1437 0022 196A     		ldr	r1, [r3, #32]
 1438 0024 41F21112 		movw	r2, #4369
 1439 0028 0A40     		ands	r2, r2, r1
 1440 002a 22B9     		cbnz	r2, .L147
 1441 002c 196A     		ldr	r1, [r3, #32]
 1442 002e 40F24442 		movw	r2, #1092
 1443 0032 0A40     		ands	r2, r2, r1
 1444 0034 7AB1     		cbz	r2, .L149
 1445              	.L147:
 1446 0036 196A     		ldr	r1, [r3, #32]
 1447 0038 41F21112 		movw	r2, #4369
 1448 003c 0A40     		ands	r2, r2, r1
 1449 003e 42B9     		cbnz	r2, .L148
 1450 0040 196A     		ldr	r1, [r3, #32]
 1451 0042 40F24442 		movw	r2, #1092
 1452 0046 0A40     		ands	r2, r2, r1
 1453 0048 1AB9     		cbnz	r2, .L148
 1454 004a 1A68     		ldr	r2, [r3]
 1455 004c 22F00102 		bic	r2, r2, #1
 1456 0050 1A60     		str	r2, [r3]
 1457              	.L148:
 1458 0052 0020     		movs	r0, #0
 1459 0054 7047     		bx	lr
 1460              	.L149:
 1461 0056 5A6C     		ldr	r2, [r3, #68]
 1462 0058 22F40042 		bic	r2, r2, #32768
 1463 005c 5A64     		str	r2, [r3, #68]
 1464 005e EAE7     		b	.L147
 1466              		.section	.text.HAL_TIMEx_ConfigCommutationEvent,"ax",%progbits
 1467              		.align	2
 1468              		.global	HAL_TIMEx_ConfigCommutationEvent
 1469              		.thumb
 1470              		.thumb_func
 1472              	HAL_TIMEx_ConfigCommutationEvent:
 1473              		@ args = 0, pretend = 0, frame = 0
 1474              		@ frame_needed = 0, uses_anonymous_args = 0
 1475              		@ link register save eliminated.
 1476 0000 90F83830 		ldrb	r3, [r0, #56]	@ zero_extendqisi2
 1477 0004 012B     		cmp	r3, #1
 1478 0006 20D0     		beq	.L154
ARM GAS  /var/folders/_j/px34bss161g6w2_6fxy_byhh0000gn/T//cc3dXcWG.s 			page 26


 1479 0008 0123     		movs	r3, #1
 1480 000a 10B4     		push	{r4}
 1481 000c 80F83830 		strb	r3, [r0, #56]
 1482 0010 31F03003 		bics	r3, r1, #48
 1483 0014 0368     		ldr	r3, [r0]
 1484 0016 06D1     		bne	.L153
 1485 0018 9C68     		ldr	r4, [r3, #8]
 1486 001a 24F07004 		bic	r4, r4, #112
 1487 001e 9C60     		str	r4, [r3, #8]
 1488 0020 9C68     		ldr	r4, [r3, #8]
 1489 0022 2143     		orrs	r1, r1, r4
 1490 0024 9960     		str	r1, [r3, #8]
 1491              	.L153:
 1492 0026 5968     		ldr	r1, [r3, #4]
 1493 0028 41F00101 		orr	r1, r1, #1
 1494 002c 5960     		str	r1, [r3, #4]
 1495 002e 5968     		ldr	r1, [r3, #4]
 1496 0030 21F00401 		bic	r1, r1, #4
 1497 0034 5960     		str	r1, [r3, #4]
 1498 0036 5968     		ldr	r1, [r3, #4]
 1499 0038 0024     		movs	r4, #0
 1500 003a 0A43     		orrs	r2, r2, r1
 1501 003c 5A60     		str	r2, [r3, #4]
 1502 003e 80F83840 		strb	r4, [r0, #56]
 1503 0042 2046     		mov	r0, r4
 1504 0044 5DF8044B 		ldr	r4, [sp], #4
 1505 0048 7047     		bx	lr
 1506              	.L154:
 1507 004a 0223     		movs	r3, #2
 1508 004c 1846     		mov	r0, r3
 1509 004e 7047     		bx	lr
 1511              		.section	.text.HAL_TIMEx_ConfigCommutationEvent_IT,"ax",%progbits
 1512              		.align	2
 1513              		.global	HAL_TIMEx_ConfigCommutationEvent_IT
 1514              		.thumb
 1515              		.thumb_func
 1517              	HAL_TIMEx_ConfigCommutationEvent_IT:
 1518              		@ args = 0, pretend = 0, frame = 0
 1519              		@ frame_needed = 0, uses_anonymous_args = 0
 1520              		@ link register save eliminated.
 1521 0000 90F83830 		ldrb	r3, [r0, #56]	@ zero_extendqisi2
 1522 0004 012B     		cmp	r3, #1
 1523 0006 24D0     		beq	.L161
 1524 0008 0123     		movs	r3, #1
 1525 000a 10B4     		push	{r4}
 1526 000c 80F83830 		strb	r3, [r0, #56]
 1527 0010 31F03003 		bics	r3, r1, #48
 1528 0014 0368     		ldr	r3, [r0]
 1529 0016 06D1     		bne	.L160
 1530 0018 9C68     		ldr	r4, [r3, #8]
 1531 001a 24F07004 		bic	r4, r4, #112
 1532 001e 9C60     		str	r4, [r3, #8]
 1533 0020 9C68     		ldr	r4, [r3, #8]
 1534 0022 2143     		orrs	r1, r1, r4
 1535 0024 9960     		str	r1, [r3, #8]
 1536              	.L160:
 1537 0026 5968     		ldr	r1, [r3, #4]
ARM GAS  /var/folders/_j/px34bss161g6w2_6fxy_byhh0000gn/T//cc3dXcWG.s 			page 27


 1538 0028 5DF8044B 		ldr	r4, [sp], #4
 1539 002c 41F00101 		orr	r1, r1, #1
 1540 0030 5960     		str	r1, [r3, #4]
 1541 0032 5968     		ldr	r1, [r3, #4]
 1542 0034 21F00401 		bic	r1, r1, #4
 1543 0038 5960     		str	r1, [r3, #4]
 1544 003a 5968     		ldr	r1, [r3, #4]
 1545 003c 0A43     		orrs	r2, r2, r1
 1546 003e 5A60     		str	r2, [r3, #4]
 1547 0040 DA68     		ldr	r2, [r3, #12]
 1548 0042 0021     		movs	r1, #0
 1549 0044 42F02002 		orr	r2, r2, #32
 1550 0048 DA60     		str	r2, [r3, #12]
 1551 004a 80F83810 		strb	r1, [r0, #56]
 1552 004e 0846     		mov	r0, r1
 1553 0050 7047     		bx	lr
 1554              	.L161:
 1555 0052 0223     		movs	r3, #2
 1556 0054 1846     		mov	r0, r3
 1557 0056 7047     		bx	lr
 1559              		.section	.text.HAL_TIMEx_ConfigCommutationEvent_DMA,"ax",%progbits
 1560              		.align	2
 1561              		.global	HAL_TIMEx_ConfigCommutationEvent_DMA
 1562              		.thumb
 1563              		.thumb_func
 1565              	HAL_TIMEx_ConfigCommutationEvent_DMA:
 1566              		@ args = 0, pretend = 0, frame = 0
 1567              		@ frame_needed = 0, uses_anonymous_args = 0
 1568              		@ link register save eliminated.
 1569 0000 90F83830 		ldrb	r3, [r0, #56]	@ zero_extendqisi2
 1570 0004 012B     		cmp	r3, #1
 1571 0006 28D0     		beq	.L168
 1572 0008 0123     		movs	r3, #1
 1573 000a 70B4     		push	{r4, r5, r6}
 1574 000c 80F83830 		strb	r3, [r0, #56]
 1575 0010 31F03003 		bics	r3, r1, #48
 1576 0014 0368     		ldr	r3, [r0]
 1577 0016 06D1     		bne	.L167
 1578 0018 9C68     		ldr	r4, [r3, #8]
 1579 001a 24F07004 		bic	r4, r4, #112
 1580 001e 9C60     		str	r4, [r3, #8]
 1581 0020 9C68     		ldr	r4, [r3, #8]
 1582 0022 2143     		orrs	r1, r1, r4
 1583 0024 9960     		str	r1, [r3, #8]
 1584              	.L167:
 1585 0026 5968     		ldr	r1, [r3, #4]
 1586 0028 056B     		ldr	r5, [r0, #48]
 1587 002a 0D4C     		ldr	r4, .L171
 1588 002c 0D4E     		ldr	r6, .L171+4
 1589 002e 41F00101 		orr	r1, r1, #1
 1590 0032 5960     		str	r1, [r3, #4]
 1591 0034 5968     		ldr	r1, [r3, #4]
 1592 0036 21F00401 		bic	r1, r1, #4
 1593 003a 5960     		str	r1, [r3, #4]
 1594 003c 5968     		ldr	r1, [r3, #4]
 1595 003e 0A43     		orrs	r2, r2, r1
 1596 0040 5A60     		str	r2, [r3, #4]
ARM GAS  /var/folders/_j/px34bss161g6w2_6fxy_byhh0000gn/T//cc3dXcWG.s 			page 28


 1597 0042 DA68     		ldr	r2, [r3, #12]
 1598 0044 EC63     		str	r4, [r5, #60]
 1599 0046 42F40052 		orr	r2, r2, #8192
 1600 004a 0024     		movs	r4, #0
 1601 004c EE64     		str	r6, [r5, #76]
 1602 004e DA60     		str	r2, [r3, #12]
 1603 0050 80F83840 		strb	r4, [r0, #56]
 1604 0054 2046     		mov	r0, r4
 1605 0056 70BC     		pop	{r4, r5, r6}
 1606 0058 7047     		bx	lr
 1607              	.L168:
 1608 005a 0221     		movs	r1, #2
 1609 005c 0846     		mov	r0, r1
 1610 005e 7047     		bx	lr
 1611              	.L172:
 1612              		.align	2
 1613              	.L171:
 1614 0060 00000000 		.word	TIMEx_DMACommutationCplt
 1615 0064 00000000 		.word	TIM_DMAError
 1617              		.section	.text.HAL_TIMEx_MasterConfigSynchronization,"ax",%progbits
 1618              		.align	2
 1619              		.global	HAL_TIMEx_MasterConfigSynchronization
 1620              		.thumb
 1621              		.thumb_func
 1623              	HAL_TIMEx_MasterConfigSynchronization:
 1624              		@ args = 0, pretend = 0, frame = 0
 1625              		@ frame_needed = 0, uses_anonymous_args = 0
 1626              		@ link register save eliminated.
 1627 0000 90F83830 		ldrb	r3, [r0, #56]	@ zero_extendqisi2
 1628 0004 012B     		cmp	r3, #1
 1629 0006 0246     		mov	r2, r0
 1630 0008 1CD0     		beq	.L175
 1631 000a 1368     		ldr	r3, [r2]
 1632 000c 0220     		movs	r0, #2
 1633 000e 30B4     		push	{r4, r5}
 1634 0010 82F83900 		strb	r0, [r2, #57]
 1635 0014 5C68     		ldr	r4, [r3, #4]
 1636 0016 24F07004 		bic	r4, r4, #112
 1637 001a 03C9     		ldmia	r1, {r0, r1}
 1638 001c 5C60     		str	r4, [r3, #4]
 1639 001e 5C68     		ldr	r4, [r3, #4]
 1640 0020 2043     		orrs	r0, r0, r4
 1641 0022 5860     		str	r0, [r3, #4]
 1642 0024 9868     		ldr	r0, [r3, #8]
 1643 0026 20F08000 		bic	r0, r0, #128
 1644 002a 9860     		str	r0, [r3, #8]
 1645 002c 9868     		ldr	r0, [r3, #8]
 1646 002e 0024     		movs	r4, #0
 1647 0030 0125     		movs	r5, #1
 1648 0032 0143     		orrs	r1, r1, r0
 1649 0034 9960     		str	r1, [r3, #8]
 1650 0036 2046     		mov	r0, r4
 1651 0038 82F83950 		strb	r5, [r2, #57]
 1652 003c 82F83840 		strb	r4, [r2, #56]
 1653 0040 30BC     		pop	{r4, r5}
 1654 0042 7047     		bx	lr
 1655              	.L175:
ARM GAS  /var/folders/_j/px34bss161g6w2_6fxy_byhh0000gn/T//cc3dXcWG.s 			page 29


 1656 0044 0220     		movs	r0, #2
 1657 0046 7047     		bx	lr
 1659              		.section	.text.HAL_TIMEx_ConfigBreakDeadTime,"ax",%progbits
 1660              		.align	2
 1661              		.global	HAL_TIMEx_ConfigBreakDeadTime
 1662              		.thumb
 1663              		.thumb_func
 1665              	HAL_TIMEx_ConfigBreakDeadTime:
 1666              		@ args = 0, pretend = 0, frame = 0
 1667              		@ frame_needed = 0, uses_anonymous_args = 0
 1668              		@ link register save eliminated.
 1669 0000 90F83820 		ldrb	r2, [r0, #56]	@ zero_extendqisi2
 1670 0004 012A     		cmp	r2, #1
 1671 0006 0346     		mov	r3, r0
 1672 0008 1AD0     		beq	.L180
 1673 000a F0B4     		push	{r4, r5, r6, r7}
 1674 000c 91E8A400 		ldmia	r1, {r2, r5, r7}
 1675 0010 CE68     		ldr	r6, [r1, #12]
 1676 0012 0C69     		ldr	r4, [r1, #16]
 1677 0014 4869     		ldr	r0, [r1, #20]
 1678 0016 8969     		ldr	r1, [r1, #24]
 1679 0018 2A43     		orrs	r2, r2, r5
 1680 001a 3A43     		orrs	r2, r2, r7
 1681 001c 3243     		orrs	r2, r2, r6
 1682 001e 2243     		orrs	r2, r2, r4
 1683 0020 0243     		orrs	r2, r2, r0
 1684 0022 1D68     		ldr	r5, [r3]
 1685 0024 0A43     		orrs	r2, r2, r1
 1686 0026 0220     		movs	r0, #2
 1687 0028 0124     		movs	r4, #1
 1688 002a 0021     		movs	r1, #0
 1689 002c 83F83900 		strb	r0, [r3, #57]
 1690 0030 6A64     		str	r2, [r5, #68]
 1691 0032 0846     		mov	r0, r1
 1692 0034 83F83940 		strb	r4, [r3, #57]
 1693 0038 83F83810 		strb	r1, [r3, #56]
 1694 003c F0BC     		pop	{r4, r5, r6, r7}
 1695 003e 7047     		bx	lr
 1696              	.L180:
 1697 0040 0220     		movs	r0, #2
 1698 0042 7047     		bx	lr
 1700              		.section	.text.HAL_TIMEx_RemapConfig,"ax",%progbits
 1701              		.align	2
 1702              		.global	HAL_TIMEx_RemapConfig
 1703              		.thumb
 1704              		.thumb_func
 1706              	HAL_TIMEx_RemapConfig:
 1707              		@ args = 0, pretend = 0, frame = 0
 1708              		@ frame_needed = 0, uses_anonymous_args = 0
 1709              		@ link register save eliminated.
 1710 0000 90F83820 		ldrb	r2, [r0, #56]	@ zero_extendqisi2
 1711 0004 012A     		cmp	r2, #1
 1712 0006 0346     		mov	r3, r0
 1713 0008 0CD0     		beq	.L185
 1714 000a 0068     		ldr	r0, [r0]
 1715 000c 10B4     		push	{r4}
 1716 000e 0022     		movs	r2, #0
ARM GAS  /var/folders/_j/px34bss161g6w2_6fxy_byhh0000gn/T//cc3dXcWG.s 			page 30


 1717 0010 0124     		movs	r4, #1
 1718 0012 0165     		str	r1, [r0, #80]
 1719 0014 1046     		mov	r0, r2
 1720 0016 83F83940 		strb	r4, [r3, #57]
 1721 001a 83F83820 		strb	r2, [r3, #56]
 1722 001e 5DF8044B 		ldr	r4, [sp], #4
 1723 0022 7047     		bx	lr
 1724              	.L185:
 1725 0024 0220     		movs	r0, #2
 1726 0026 7047     		bx	lr
 1728              		.section	.text.HAL_TIMEx_CommutationCallback,"ax",%progbits
 1729              		.align	2
 1730              		.weak	HAL_TIMEx_CommutationCallback
 1731              		.thumb
 1732              		.thumb_func
 1734              	HAL_TIMEx_CommutationCallback:
 1735              		@ args = 0, pretend = 0, frame = 0
 1736              		@ frame_needed = 0, uses_anonymous_args = 0
 1737              		@ link register save eliminated.
 1738 0000 7047     		bx	lr
 1740 0002 00BF     		.section	.text.TIMEx_DMACommutationCplt,"ax",%progbits
 1741              		.align	2
 1742              		.global	TIMEx_DMACommutationCplt
 1743              		.thumb
 1744              		.thumb_func
 1746              	TIMEx_DMACommutationCplt:
 1747              		@ args = 0, pretend = 0, frame = 0
 1748              		@ frame_needed = 0, uses_anonymous_args = 0
 1749 0000 08B5     		push	{r3, lr}
 1750 0002 806B     		ldr	r0, [r0, #56]
 1751 0004 0123     		movs	r3, #1
 1752 0006 80F83930 		strb	r3, [r0, #57]
 1753 000a FFF7FEFF 		bl	HAL_TIMEx_CommutationCallback
 1754 000e 08BD     		pop	{r3, pc}
 1756              		.section	.text.HAL_TIMEx_BreakCallback,"ax",%progbits
 1757              		.align	2
 1758              		.weak	HAL_TIMEx_BreakCallback
 1759              		.thumb
 1760              		.thumb_func
 1762              	HAL_TIMEx_BreakCallback:
 1763              		@ args = 0, pretend = 0, frame = 0
 1764              		@ frame_needed = 0, uses_anonymous_args = 0
 1765              		@ link register save eliminated.
 1766 0000 7047     		bx	lr
 1768 0002 00BF     		.section	.text.HAL_TIMEx_HallSensor_GetState,"ax",%progbits
 1769              		.align	2
 1770              		.global	HAL_TIMEx_HallSensor_GetState
 1771              		.thumb
 1772              		.thumb_func
 1774              	HAL_TIMEx_HallSensor_GetState:
 1775              		@ args = 0, pretend = 0, frame = 0
 1776              		@ frame_needed = 0, uses_anonymous_args = 0
 1777              		@ link register save eliminated.
 1778 0000 90F83900 		ldrb	r0, [r0, #57]	@ zero_extendqisi2
 1779 0004 7047     		bx	lr
 1781 0006 00BF     		.ident	"GCC: (GNU Tools for ARM Embedded Processors) 4.9.3 20150529 (release) [ARM/embedded-4_9-br
ARM GAS  /var/folders/_j/px34bss161g6w2_6fxy_byhh0000gn/T//cc3dXcWG.s 			page 31

