ARM GAS  /tmp/cc4uomCH.s 			page 1


   1              		.syntax unified
   2              		.cpu cortex-m4
   3              		.eabi_attribute 27, 1
   4              		.fpu fpv4-sp-d16
   5              		.eabi_attribute 20, 1
   6              		.eabi_attribute 21, 1
   7              		.eabi_attribute 23, 3
   8              		.eabi_attribute 24, 1
   9              		.eabi_attribute 25, 1
  10              		.eabi_attribute 26, 1
  11              		.eabi_attribute 30, 2
  12              		.eabi_attribute 34, 1
  13              		.eabi_attribute 18, 4
  14              		.thumb
  15              		.syntax unified
  16              		.file	"stm32f4xx_hal_msp.c"
  17              		.section	.text.HAL_MspInit,"ax",%progbits
  18              		.align	2
  19              		.global	HAL_MspInit
  20              		.thumb
  21              		.thumb_func
  23              	HAL_MspInit:
  24              		@ args = 0, pretend = 0, frame = 0
  25              		@ frame_needed = 0, uses_anonymous_args = 0
  26 0000 08B5     		push	{r3, lr}
  27 0002 0720     		movs	r0, #7
  28 0004 FFF7FEFF 		bl	HAL_NVIC_SetPriorityGrouping
  29 0008 0022     		movs	r2, #0
  30 000a 1146     		mov	r1, r2
  31 000c 6FF00B00 		mvn	r0, #11
  32 0010 FFF7FEFF 		bl	HAL_NVIC_SetPriority
  33 0014 0022     		movs	r2, #0
  34 0016 1146     		mov	r1, r2
  35 0018 6FF00A00 		mvn	r0, #10
  36 001c FFF7FEFF 		bl	HAL_NVIC_SetPriority
  37 0020 0022     		movs	r2, #0
  38 0022 1146     		mov	r1, r2
  39 0024 6FF00900 		mvn	r0, #9
  40 0028 FFF7FEFF 		bl	HAL_NVIC_SetPriority
  41 002c 0022     		movs	r2, #0
  42 002e 1146     		mov	r1, r2
  43 0030 6FF00400 		mvn	r0, #4
  44 0034 FFF7FEFF 		bl	HAL_NVIC_SetPriority
  45 0038 0022     		movs	r2, #0
  46 003a 1146     		mov	r1, r2
  47 003c 6FF00300 		mvn	r0, #3
  48 0040 FFF7FEFF 		bl	HAL_NVIC_SetPriority
  49 0044 0022     		movs	r2, #0
  50 0046 1146     		mov	r1, r2
  51 0048 6FF00100 		mvn	r0, #1
  52 004c FFF7FEFF 		bl	HAL_NVIC_SetPriority
  53 0050 0022     		movs	r2, #0
  54 0052 1146     		mov	r1, r2
  55 0054 4FF0FF30 		mov	r0, #-1
  56 0058 BDE80840 		pop	{r3, lr}
  57 005c FFF7FEBF 		b	HAL_NVIC_SetPriority
  59              		.section	.text.HAL_ADC_MspInit,"ax",%progbits
ARM GAS  /tmp/cc4uomCH.s 			page 2


  60              		.align	2
  61              		.global	HAL_ADC_MspInit
  62              		.thumb
  63              		.thumb_func
  65              	HAL_ADC_MspInit:
  66              		@ args = 0, pretend = 0, frame = 24
  67              		@ frame_needed = 0, uses_anonymous_args = 0
  68 0000 0268     		ldr	r2, [r0]
  69 0002 174B     		ldr	r3, .L9
  70 0004 9A42     		cmp	r2, r3
  71 0006 00D0     		beq	.L8
  72 0008 7047     		bx	lr
  73              	.L8:
  74 000a 30B5     		push	{r4, r5, lr}
  75 000c 87B0     		sub	sp, sp, #28
  76 000e 0024     		movs	r4, #0
  77 0010 03F58C33 		add	r3, r3, #71680
  78 0014 0094     		str	r4, [sp]
  79 0016 5A6C     		ldr	r2, [r3, #68]
  80 0018 1248     		ldr	r0, .L9+4
  81 001a 42F48072 		orr	r2, r2, #256
  82 001e 5A64     		str	r2, [r3, #68]
  83 0020 5B6C     		ldr	r3, [r3, #68]
  84 0022 0394     		str	r4, [sp, #12]
  85 0024 03F48073 		and	r3, r3, #256
  86 0028 0093     		str	r3, [sp]
  87 002a 01A9     		add	r1, sp, #4
  88 002c DF23     		movs	r3, #223
  89 002e 0325     		movs	r5, #3
  90 0030 009A     		ldr	r2, [sp]
  91 0032 0193     		str	r3, [sp, #4]
  92 0034 0295     		str	r5, [sp, #8]
  93 0036 FFF7FEFF 		bl	HAL_GPIO_Init
  94 003a 0123     		movs	r3, #1
  95 003c 01A9     		add	r1, sp, #4
  96 003e 0A48     		ldr	r0, .L9+8
  97 0040 0193     		str	r3, [sp, #4]
  98 0042 0295     		str	r5, [sp, #8]
  99 0044 0394     		str	r4, [sp, #12]
 100 0046 FFF7FEFF 		bl	HAL_GPIO_Init
 101 004a 2246     		mov	r2, r4
 102 004c 2146     		mov	r1, r4
 103 004e 1220     		movs	r0, #18
 104 0050 FFF7FEFF 		bl	HAL_NVIC_SetPriority
 105 0054 1220     		movs	r0, #18
 106 0056 FFF7FEFF 		bl	HAL_NVIC_EnableIRQ
 107 005a 07B0     		add	sp, sp, #28
 108              		@ sp needed
 109 005c 30BD     		pop	{r4, r5, pc}
 110              	.L10:
 111 005e 00BF     		.align	2
 112              	.L9:
 113 0060 00200140 		.word	1073815552
 114 0064 00000240 		.word	1073872896
 115 0068 00040240 		.word	1073873920
 117              		.section	.text.HAL_ADC_MspDeInit,"ax",%progbits
 118              		.align	2
ARM GAS  /tmp/cc4uomCH.s 			page 3


 119              		.global	HAL_ADC_MspDeInit
 120              		.thumb
 121              		.thumb_func
 123              	HAL_ADC_MspDeInit:
 124              		@ args = 0, pretend = 0, frame = 0
 125              		@ frame_needed = 0, uses_anonymous_args = 0
 126 0000 08B5     		push	{r3, lr}
 127 0002 0268     		ldr	r2, [r0]
 128 0004 0A4B     		ldr	r3, .L15
 129 0006 9A42     		cmp	r2, r3
 130 0008 00D0     		beq	.L14
 131 000a 08BD     		pop	{r3, pc}
 132              	.L14:
 133 000c 094A     		ldr	r2, .L15+4
 134 000e 0A48     		ldr	r0, .L15+8
 135 0010 536C     		ldr	r3, [r2, #68]
 136 0012 23F48073 		bic	r3, r3, #256
 137 0016 5364     		str	r3, [r2, #68]
 138 0018 DF21     		movs	r1, #223
 139 001a FFF7FEFF 		bl	HAL_GPIO_DeInit
 140 001e 0748     		ldr	r0, .L15+12
 141 0020 0121     		movs	r1, #1
 142 0022 FFF7FEFF 		bl	HAL_GPIO_DeInit
 143 0026 1220     		movs	r0, #18
 144 0028 BDE80840 		pop	{r3, lr}
 145 002c FFF7FEBF 		b	HAL_NVIC_DisableIRQ
 146              	.L16:
 147              		.align	2
 148              	.L15:
 149 0030 00200140 		.word	1073815552
 150 0034 00380240 		.word	1073887232
 151 0038 00000240 		.word	1073872896
 152 003c 00040240 		.word	1073873920
 154              		.section	.text.HAL_TIM_PWM_MspInit,"ax",%progbits
 155              		.align	2
 156              		.global	HAL_TIM_PWM_MspInit
 157              		.thumb
 158              		.thumb_func
 160              	HAL_TIM_PWM_MspInit:
 161              		@ args = 0, pretend = 0, frame = 8
 162              		@ frame_needed = 0, uses_anonymous_args = 0
 163              		@ link register save eliminated.
 164 0000 0268     		ldr	r2, [r0]
 165 0002 0A4B     		ldr	r3, .L23
 166 0004 9A42     		cmp	r2, r3
 167 0006 00D0     		beq	.L22
 168 0008 7047     		bx	lr
 169              	.L22:
 170 000a 82B0     		sub	sp, sp, #8
 171 000c 03F50C33 		add	r3, r3, #143360
 172 0010 0022     		movs	r2, #0
 173 0012 0192     		str	r2, [sp, #4]
 174 0014 1A6C     		ldr	r2, [r3, #64]
 175 0016 42F00402 		orr	r2, r2, #4
 176 001a 1A64     		str	r2, [r3, #64]
 177 001c 1B6C     		ldr	r3, [r3, #64]
 178 001e 03F00403 		and	r3, r3, #4
ARM GAS  /tmp/cc4uomCH.s 			page 4


 179 0022 0193     		str	r3, [sp, #4]
 180 0024 019B     		ldr	r3, [sp, #4]
 181 0026 02B0     		add	sp, sp, #8
 182              		@ sp needed
 183 0028 7047     		bx	lr
 184              	.L24:
 185 002a 00BF     		.align	2
 186              	.L23:
 187 002c 00080040 		.word	1073743872
 189              		.section	.text.HAL_TIM_MspPostInit,"ax",%progbits
 190              		.align	2
 191              		.global	HAL_TIM_MspPostInit
 192              		.thumb
 193              		.thumb_func
 195              	HAL_TIM_MspPostInit:
 196              		@ args = 0, pretend = 0, frame = 24
 197              		@ frame_needed = 0, uses_anonymous_args = 0
 198 0000 0268     		ldr	r2, [r0]
 199 0002 0A4B     		ldr	r3, .L30
 200 0004 9A42     		cmp	r2, r3
 201 0006 00D0     		beq	.L29
 202 0008 7047     		bx	lr
 203              	.L29:
 204 000a 10B5     		push	{r4, lr}
 205 000c 86B0     		sub	sp, sp, #24
 206 000e 0222     		movs	r2, #2
 207 0010 0023     		movs	r3, #0
 208 0012 4FF47074 		mov	r4, #960
 209 0016 01A9     		add	r1, sp, #4
 210 0018 0548     		ldr	r0, .L30+4
 211 001a 0194     		str	r4, [sp, #4]
 212 001c 0292     		str	r2, [sp, #8]
 213 001e 0592     		str	r2, [sp, #20]
 214 0020 0393     		str	r3, [sp, #12]
 215 0022 0493     		str	r3, [sp, #16]
 216 0024 FFF7FEFF 		bl	HAL_GPIO_Init
 217 0028 06B0     		add	sp, sp, #24
 218              		@ sp needed
 219 002a 10BD     		pop	{r4, pc}
 220              	.L31:
 221              		.align	2
 222              	.L30:
 223 002c 00080040 		.word	1073743872
 224 0030 00040240 		.word	1073873920
 226              		.section	.text.HAL_TIM_PWM_MspDeInit,"ax",%progbits
 227              		.align	2
 228              		.global	HAL_TIM_PWM_MspDeInit
 229              		.thumb
 230              		.thumb_func
 232              	HAL_TIM_PWM_MspDeInit:
 233              		@ args = 0, pretend = 0, frame = 0
 234              		@ frame_needed = 0, uses_anonymous_args = 0
 235              		@ link register save eliminated.
 236 0000 0268     		ldr	r2, [r0]
 237 0002 054B     		ldr	r3, .L35
 238 0004 9A42     		cmp	r2, r3
 239 0006 00D0     		beq	.L34
ARM GAS  /tmp/cc4uomCH.s 			page 5


 240 0008 7047     		bx	lr
 241              	.L34:
 242 000a 044A     		ldr	r2, .L35+4
 243 000c 136C     		ldr	r3, [r2, #64]
 244 000e 23F00403 		bic	r3, r3, #4
 245 0012 1364     		str	r3, [r2, #64]
 246 0014 7047     		bx	lr
 247              	.L36:
 248 0016 00BF     		.align	2
 249              	.L35:
 250 0018 00080040 		.word	1073743872
 251 001c 00380240 		.word	1073887232
 253              		.ident	"GCC: (GNU Tools for ARM Embedded Processors) 5.4.1 20160919 (release) [ARM/embedded-5-bran
ARM GAS  /tmp/cc4uomCH.s 			page 6

