ARM GAS  /tmp/ccm30MZX.s 			page 1


   1              		.syntax unified
   2              		.cpu cortex-m4
   3              		.eabi_attribute 27, 1
   4              		.fpu fpv4-sp-d16
   5              		.eabi_attribute 20, 1
   6              		.eabi_attribute 21, 1
   7              		.eabi_attribute 23, 3
   8              		.eabi_attribute 24, 1
   9              		.eabi_attribute 25, 1
  10              		.eabi_attribute 26, 1
  11              		.eabi_attribute 30, 2
  12              		.eabi_attribute 34, 1
  13              		.eabi_attribute 18, 4
  14              		.thumb
  15              		.syntax unified
  16              		.file	"stm32f4xx_hal_tim_ex.c"
  17              		.section	.text.HAL_TIMEx_HallSensor_MspInit,"ax",%progbits
  18              		.align	2
  19              		.weak	HAL_TIMEx_HallSensor_MspInit
  20              		.thumb
  21              		.thumb_func
  23              	HAL_TIMEx_HallSensor_MspInit:
  24              		@ args = 0, pretend = 0, frame = 0
  25              		@ frame_needed = 0, uses_anonymous_args = 0
  26              		@ link register save eliminated.
  27 0000 7047     		bx	lr
  29 0002 00BF     		.section	.text.HAL_TIMEx_HallSensor_Init,"ax",%progbits
  30              		.align	2
  31              		.global	HAL_TIMEx_HallSensor_Init
  32              		.thumb
  33              		.thumb_func
  35              	HAL_TIMEx_HallSensor_Init:
  36              		@ args = 0, pretend = 0, frame = 32
  37              		@ frame_needed = 0, uses_anonymous_args = 0
  38 0000 0028     		cmp	r0, #0
  39 0002 4BD0     		beq	.L4
  40 0004 30B5     		push	{r4, r5, lr}
  41 0006 0223     		movs	r3, #2
  42 0008 0446     		mov	r4, r0
  43 000a 89B0     		sub	sp, sp, #36
  44 000c 0D46     		mov	r5, r1
  45 000e 80F83930 		strb	r3, [r0, #57]
  46 0012 FFF7FEFF 		bl	HAL_TIMEx_HallSensor_MspInit
  47 0016 211D     		adds	r1, r4, #4
  48 0018 2068     		ldr	r0, [r4]
  49 001a FFF7FEFF 		bl	TIM_Base_SetConfig
  50 001e AB68     		ldr	r3, [r5, #8]
  51 0020 2968     		ldr	r1, [r5]
  52 0022 2068     		ldr	r0, [r4]
  53 0024 0322     		movs	r2, #3
  54 0026 FFF7FEFF 		bl	TIM_TI1_SetConfig
  55 002a 2068     		ldr	r0, [r4]
  56 002c E968     		ldr	r1, [r5, #12]
  57 002e 8269     		ldr	r2, [r0, #24]
  58 0030 6B68     		ldr	r3, [r5, #4]
  59 0032 22F00C02 		bic	r2, r2, #12
  60 0036 8261     		str	r2, [r0, #24]
ARM GAS  /tmp/ccm30MZX.s 			page 2


  61 0038 8269     		ldr	r2, [r0, #24]
  62 003a 1343     		orrs	r3, r3, r2
  63 003c 8361     		str	r3, [r0, #24]
  64 003e 4368     		ldr	r3, [r0, #4]
  65 0040 43F08003 		orr	r3, r3, #128
  66 0044 4360     		str	r3, [r0, #4]
  67 0046 8368     		ldr	r3, [r0, #8]
  68 0048 0291     		str	r1, [sp, #8]
  69 004a 23F07003 		bic	r3, r3, #112
  70 004e 8360     		str	r3, [r0, #8]
  71 0050 8368     		ldr	r3, [r0, #8]
  72 0052 43F04003 		orr	r3, r3, #64
  73 0056 8360     		str	r3, [r0, #8]
  74 0058 8368     		ldr	r3, [r0, #8]
  75 005a 23F00703 		bic	r3, r3, #7
  76 005e 8360     		str	r3, [r0, #8]
  77 0060 8368     		ldr	r3, [r0, #8]
  78 0062 43F00403 		orr	r3, r3, #4
  79 0066 8360     		str	r3, [r0, #8]
  80 0068 0025     		movs	r5, #0
  81 006a 7023     		movs	r3, #112
  82 006c 01A9     		add	r1, sp, #4
  83 006e 0193     		str	r3, [sp, #4]
  84 0070 0595     		str	r5, [sp, #20]
  85 0072 0695     		str	r5, [sp, #24]
  86 0074 0795     		str	r5, [sp, #28]
  87 0076 0495     		str	r5, [sp, #16]
  88 0078 0395     		str	r5, [sp, #12]
  89 007a FFF7FEFF 		bl	TIM_OC2_SetConfig
  90 007e 2368     		ldr	r3, [r4]
  91 0080 5A68     		ldr	r2, [r3, #4]
  92 0082 22F07002 		bic	r2, r2, #112
  93 0086 5A60     		str	r2, [r3, #4]
  94 0088 5A68     		ldr	r2, [r3, #4]
  95 008a 0121     		movs	r1, #1
  96 008c 42F05002 		orr	r2, r2, #80
  97 0090 2846     		mov	r0, r5
  98 0092 5A60     		str	r2, [r3, #4]
  99 0094 84F83910 		strb	r1, [r4, #57]
 100 0098 09B0     		add	sp, sp, #36
 101              		@ sp needed
 102 009a 30BD     		pop	{r4, r5, pc}
 103              	.L4:
 104 009c 0120     		movs	r0, #1
 105 009e 7047     		bx	lr
 107              		.section	.text.HAL_TIMEx_HallSensor_MspDeInit,"ax",%progbits
 108              		.align	2
 109              		.weak	HAL_TIMEx_HallSensor_MspDeInit
 110              		.thumb
 111              		.thumb_func
 113              	HAL_TIMEx_HallSensor_MspDeInit:
 114              		@ args = 0, pretend = 0, frame = 0
 115              		@ frame_needed = 0, uses_anonymous_args = 0
 116              		@ link register save eliminated.
 117 0000 7047     		bx	lr
 119 0002 00BF     		.section	.text.HAL_TIMEx_HallSensor_DeInit,"ax",%progbits
 120              		.align	2
ARM GAS  /tmp/ccm30MZX.s 			page 3


 121              		.global	HAL_TIMEx_HallSensor_DeInit
 122              		.thumb
 123              		.thumb_func
 125              	HAL_TIMEx_HallSensor_DeInit:
 126              		@ args = 0, pretend = 0, frame = 0
 127              		@ frame_needed = 0, uses_anonymous_args = 0
 128 0000 0223     		movs	r3, #2
 129 0002 0268     		ldr	r2, [r0]
 130 0004 10B5     		push	{r4, lr}
 131 0006 80F83930 		strb	r3, [r0, #57]
 132 000a 116A     		ldr	r1, [r2, #32]
 133 000c 41F21113 		movw	r3, #4369
 134 0010 0B40     		ands	r3, r3, r1
 135 0012 0446     		mov	r4, r0
 136 0014 43B9     		cbnz	r3, .L10
 137 0016 116A     		ldr	r1, [r2, #32]
 138 0018 40F24443 		movw	r3, #1092
 139 001c 0B40     		ands	r3, r3, r1
 140 001e 1BB9     		cbnz	r3, .L10
 141 0020 1368     		ldr	r3, [r2]
 142 0022 23F00103 		bic	r3, r3, #1
 143 0026 1360     		str	r3, [r2]
 144              	.L10:
 145 0028 2046     		mov	r0, r4
 146 002a FFF7FEFF 		bl	HAL_TIMEx_HallSensor_MspDeInit
 147 002e 0020     		movs	r0, #0
 148 0030 84F83900 		strb	r0, [r4, #57]
 149 0034 84F83800 		strb	r0, [r4, #56]
 150 0038 10BD     		pop	{r4, pc}
 152 003a 00BF     		.section	.text.HAL_TIMEx_HallSensor_Start,"ax",%progbits
 153              		.align	2
 154              		.global	HAL_TIMEx_HallSensor_Start
 155              		.thumb
 156              		.thumb_func
 158              	HAL_TIMEx_HallSensor_Start:
 159              		@ args = 0, pretend = 0, frame = 0
 160              		@ frame_needed = 0, uses_anonymous_args = 0
 161 0000 10B5     		push	{r4, lr}
 162 0002 0446     		mov	r4, r0
 163 0004 0122     		movs	r2, #1
 164 0006 0068     		ldr	r0, [r0]
 165 0008 0021     		movs	r1, #0
 166 000a FFF7FEFF 		bl	TIM_CCxChannelCmd
 167 000e 2268     		ldr	r2, [r4]
 168 0010 1368     		ldr	r3, [r2]
 169 0012 43F00103 		orr	r3, r3, #1
 170 0016 1360     		str	r3, [r2]
 171 0018 0020     		movs	r0, #0
 172 001a 10BD     		pop	{r4, pc}
 174              		.section	.text.HAL_TIMEx_HallSensor_Stop,"ax",%progbits
 175              		.align	2
 176              		.global	HAL_TIMEx_HallSensor_Stop
 177              		.thumb
 178              		.thumb_func
 180              	HAL_TIMEx_HallSensor_Stop:
 181              		@ args = 0, pretend = 0, frame = 0
 182              		@ frame_needed = 0, uses_anonymous_args = 0
ARM GAS  /tmp/ccm30MZX.s 			page 4


 183 0000 0022     		movs	r2, #0
 184 0002 10B5     		push	{r4, lr}
 185 0004 0446     		mov	r4, r0
 186 0006 1146     		mov	r1, r2
 187 0008 0068     		ldr	r0, [r0]
 188 000a FFF7FEFF 		bl	TIM_CCxChannelCmd
 189 000e 2268     		ldr	r2, [r4]
 190 0010 116A     		ldr	r1, [r2, #32]
 191 0012 41F21113 		movw	r3, #4369
 192 0016 0B40     		ands	r3, r3, r1
 193 0018 43B9     		cbnz	r3, .L15
 194 001a 116A     		ldr	r1, [r2, #32]
 195 001c 40F24443 		movw	r3, #1092
 196 0020 0B40     		ands	r3, r3, r1
 197 0022 1BB9     		cbnz	r3, .L15
 198 0024 1368     		ldr	r3, [r2]
 199 0026 23F00103 		bic	r3, r3, #1
 200 002a 1360     		str	r3, [r2]
 201              	.L15:
 202 002c 0020     		movs	r0, #0
 203 002e 10BD     		pop	{r4, pc}
 205              		.section	.text.HAL_TIMEx_HallSensor_Start_IT,"ax",%progbits
 206              		.align	2
 207              		.global	HAL_TIMEx_HallSensor_Start_IT
 208              		.thumb
 209              		.thumb_func
 211              	HAL_TIMEx_HallSensor_Start_IT:
 212              		@ args = 0, pretend = 0, frame = 0
 213              		@ frame_needed = 0, uses_anonymous_args = 0
 214 0000 10B5     		push	{r4, lr}
 215 0002 0446     		mov	r4, r0
 216 0004 0068     		ldr	r0, [r0]
 217 0006 C368     		ldr	r3, [r0, #12]
 218 0008 43F00203 		orr	r3, r3, #2
 219 000c C360     		str	r3, [r0, #12]
 220 000e 0122     		movs	r2, #1
 221 0010 0021     		movs	r1, #0
 222 0012 FFF7FEFF 		bl	TIM_CCxChannelCmd
 223 0016 2268     		ldr	r2, [r4]
 224 0018 1368     		ldr	r3, [r2]
 225 001a 43F00103 		orr	r3, r3, #1
 226 001e 1360     		str	r3, [r2]
 227 0020 0020     		movs	r0, #0
 228 0022 10BD     		pop	{r4, pc}
 230              		.section	.text.HAL_TIMEx_HallSensor_Stop_IT,"ax",%progbits
 231              		.align	2
 232              		.global	HAL_TIMEx_HallSensor_Stop_IT
 233              		.thumb
 234              		.thumb_func
 236              	HAL_TIMEx_HallSensor_Stop_IT:
 237              		@ args = 0, pretend = 0, frame = 0
 238              		@ frame_needed = 0, uses_anonymous_args = 0
 239 0000 0022     		movs	r2, #0
 240 0002 10B5     		push	{r4, lr}
 241 0004 0446     		mov	r4, r0
 242 0006 1146     		mov	r1, r2
 243 0008 0068     		ldr	r0, [r0]
ARM GAS  /tmp/ccm30MZX.s 			page 5


 244 000a FFF7FEFF 		bl	TIM_CCxChannelCmd
 245 000e 2368     		ldr	r3, [r4]
 246 0010 DA68     		ldr	r2, [r3, #12]
 247 0012 22F00202 		bic	r2, r2, #2
 248 0016 DA60     		str	r2, [r3, #12]
 249 0018 196A     		ldr	r1, [r3, #32]
 250 001a 41F21112 		movw	r2, #4369
 251 001e 0A40     		ands	r2, r2, r1
 252 0020 42B9     		cbnz	r2, .L20
 253 0022 196A     		ldr	r1, [r3, #32]
 254 0024 40F24442 		movw	r2, #1092
 255 0028 0A40     		ands	r2, r2, r1
 256 002a 1AB9     		cbnz	r2, .L20
 257 002c 1A68     		ldr	r2, [r3]
 258 002e 22F00102 		bic	r2, r2, #1
 259 0032 1A60     		str	r2, [r3]
 260              	.L20:
 261 0034 0020     		movs	r0, #0
 262 0036 10BD     		pop	{r4, pc}
 264              		.section	.text.HAL_TIMEx_HallSensor_Start_DMA,"ax",%progbits
 265              		.align	2
 266              		.global	HAL_TIMEx_HallSensor_Start_DMA
 267              		.thumb
 268              		.thumb_func
 270              	HAL_TIMEx_HallSensor_Start_DMA:
 271              		@ args = 0, pretend = 0, frame = 0
 272              		@ frame_needed = 0, uses_anonymous_args = 0
 273 0000 F8B5     		push	{r3, r4, r5, r6, r7, lr}
 274 0002 90F83940 		ldrb	r4, [r0, #57]	@ zero_extendqisi2
 275 0006 E4B2     		uxtb	r4, r4
 276 0008 022C     		cmp	r4, #2
 277 000a 28D0     		beq	.L28
 278 000c 90F83940 		ldrb	r4, [r0, #57]	@ zero_extendqisi2
 279 0010 E4B2     		uxtb	r4, r4
 280 0012 012C     		cmp	r4, #1
 281 0014 1DD0     		beq	.L30
 282              	.L25:
 283 0016 0446     		mov	r4, r0
 284 0018 1646     		mov	r6, r2
 285 001a 0D46     		mov	r5, r1
 286 001c 0122     		movs	r2, #1
 287 001e 0021     		movs	r1, #0
 288 0020 0068     		ldr	r0, [r0]
 289 0022 104F     		ldr	r7, .L31
 290 0024 FFF7FEFF 		bl	TIM_CCxChannelCmd
 291 0028 2168     		ldr	r1, [r4]
 292 002a 206A     		ldr	r0, [r4, #32]
 293 002c 0E4B     		ldr	r3, .L31+4
 294 002e C363     		str	r3, [r0, #60]
 295 0030 2A46     		mov	r2, r5
 296 0032 3346     		mov	r3, r6
 297 0034 C764     		str	r7, [r0, #76]
 298 0036 3431     		adds	r1, r1, #52
 299 0038 FFF7FEFF 		bl	HAL_DMA_Start_IT
 300 003c 2368     		ldr	r3, [r4]
 301 003e DA68     		ldr	r2, [r3, #12]
 302 0040 42F40072 		orr	r2, r2, #512
ARM GAS  /tmp/ccm30MZX.s 			page 6


 303 0044 DA60     		str	r2, [r3, #12]
 304 0046 1A68     		ldr	r2, [r3]
 305 0048 42F00102 		orr	r2, r2, #1
 306 004c 1A60     		str	r2, [r3]
 307 004e 0020     		movs	r0, #0
 308 0050 F8BD     		pop	{r3, r4, r5, r6, r7, pc}
 309              	.L30:
 310 0052 01B9     		cbnz	r1, .L26
 311 0054 1AB9     		cbnz	r2, .L28
 312              	.L26:
 313 0056 0223     		movs	r3, #2
 314 0058 80F83930 		strb	r3, [r0, #57]
 315 005c DBE7     		b	.L25
 316              	.L28:
 317 005e 2046     		mov	r0, r4
 318 0060 F8BD     		pop	{r3, r4, r5, r6, r7, pc}
 319              	.L32:
 320 0062 00BF     		.align	2
 321              	.L31:
 322 0064 00000000 		.word	TIM_DMAError
 323 0068 00000000 		.word	TIM_DMACaptureCplt
 325              		.section	.text.HAL_TIMEx_HallSensor_Stop_DMA,"ax",%progbits
 326              		.align	2
 327              		.global	HAL_TIMEx_HallSensor_Stop_DMA
 328              		.thumb
 329              		.thumb_func
 331              	HAL_TIMEx_HallSensor_Stop_DMA:
 332              		@ args = 0, pretend = 0, frame = 0
 333              		@ frame_needed = 0, uses_anonymous_args = 0
 334 0000 0022     		movs	r2, #0
 335 0002 10B5     		push	{r4, lr}
 336 0004 0446     		mov	r4, r0
 337 0006 1146     		mov	r1, r2
 338 0008 0068     		ldr	r0, [r0]
 339 000a FFF7FEFF 		bl	TIM_CCxChannelCmd
 340 000e 2368     		ldr	r3, [r4]
 341 0010 DA68     		ldr	r2, [r3, #12]
 342 0012 22F40072 		bic	r2, r2, #512
 343 0016 DA60     		str	r2, [r3, #12]
 344 0018 196A     		ldr	r1, [r3, #32]
 345 001a 41F21112 		movw	r2, #4369
 346 001e 0A40     		ands	r2, r2, r1
 347 0020 42B9     		cbnz	r2, .L34
 348 0022 196A     		ldr	r1, [r3, #32]
 349 0024 40F24442 		movw	r2, #1092
 350 0028 0A40     		ands	r2, r2, r1
 351 002a 1AB9     		cbnz	r2, .L34
 352 002c 1A68     		ldr	r2, [r3]
 353 002e 22F00102 		bic	r2, r2, #1
 354 0032 1A60     		str	r2, [r3]
 355              	.L34:
 356 0034 0020     		movs	r0, #0
 357 0036 10BD     		pop	{r4, pc}
 359              		.section	.text.HAL_TIMEx_PWMN_Start,"ax",%progbits
 360              		.align	2
 361              		.global	HAL_TIMEx_PWMN_Start
 362              		.thumb
ARM GAS  /tmp/ccm30MZX.s 			page 7


 363              		.thumb_func
 365              	HAL_TIMEx_PWMN_Start:
 366              		@ args = 0, pretend = 0, frame = 0
 367              		@ frame_needed = 0, uses_anonymous_args = 0
 368              		@ link register save eliminated.
 369 0000 0368     		ldr	r3, [r0]
 370 0002 0422     		movs	r2, #4
 371 0004 186A     		ldr	r0, [r3, #32]
 372 0006 02FA01F1 		lsl	r1, r2, r1
 373 000a 20EA0100 		bic	r0, r0, r1
 374 000e 1862     		str	r0, [r3, #32]
 375 0010 1A6A     		ldr	r2, [r3, #32]
 376 0012 1143     		orrs	r1, r1, r2
 377 0014 1962     		str	r1, [r3, #32]
 378 0016 5A6C     		ldr	r2, [r3, #68]
 379 0018 42F40042 		orr	r2, r2, #32768
 380 001c 5A64     		str	r2, [r3, #68]
 381 001e 1A68     		ldr	r2, [r3]
 382 0020 42F00102 		orr	r2, r2, #1
 383 0024 1A60     		str	r2, [r3]
 384 0026 0020     		movs	r0, #0
 385 0028 7047     		bx	lr
 387 002a 00BF     		.section	.text.HAL_TIMEx_OCN_Start,"ax",%progbits
 388              		.align	2
 389              		.global	HAL_TIMEx_OCN_Start
 390              		.thumb
 391              		.thumb_func
 393              	HAL_TIMEx_OCN_Start:
 394              		@ args = 0, pretend = 0, frame = 0
 395              		@ frame_needed = 0, uses_anonymous_args = 0
 396              		@ link register save eliminated.
 397 0000 FFF7FEBF 		b	HAL_TIMEx_PWMN_Start
 399              		.section	.text.HAL_TIMEx_PWMN_Start_IT,"ax",%progbits
 400              		.align	2
 401              		.global	HAL_TIMEx_PWMN_Start_IT
 402              		.thumb
 403              		.thumb_func
 405              	HAL_TIMEx_PWMN_Start_IT:
 406              		@ args = 0, pretend = 0, frame = 0
 407              		@ frame_needed = 0, uses_anonymous_args = 0
 408              		@ link register save eliminated.
 409 0000 0C29     		cmp	r1, #12
 410 0002 37D8     		bhi	.L39
 411 0004 DFE801F0 		tbb	[pc, r1]
 412              	.L41:
 413 0008 30       		.byte	(.L40-.L41)/2
 414 0009 36       		.byte	(.L39-.L41)/2
 415 000a 36       		.byte	(.L39-.L41)/2
 416 000b 36       		.byte	(.L39-.L41)/2
 417 000c 2A       		.byte	(.L42-.L41)/2
 418 000d 36       		.byte	(.L39-.L41)/2
 419 000e 36       		.byte	(.L39-.L41)/2
 420 000f 36       		.byte	(.L39-.L41)/2
 421 0010 24       		.byte	(.L43-.L41)/2
 422 0011 36       		.byte	(.L39-.L41)/2
 423 0012 36       		.byte	(.L39-.L41)/2
 424 0013 36       		.byte	(.L39-.L41)/2
ARM GAS  /tmp/ccm30MZX.s 			page 8


 425 0014 07       		.byte	(.L44-.L41)/2
 426 0015 00       		.p2align 1
 427              	.L44:
 428 0016 0368     		ldr	r3, [r0]
 429 0018 DA68     		ldr	r2, [r3, #12]
 430 001a 42F01002 		orr	r2, r2, #16
 431 001e DA60     		str	r2, [r3, #12]
 432              	.L45:
 433 0020 DA68     		ldr	r2, [r3, #12]
 434 0022 42F08002 		orr	r2, r2, #128
 435 0026 DA60     		str	r2, [r3, #12]
 436 0028 186A     		ldr	r0, [r3, #32]
 437 002a 0422     		movs	r2, #4
 438 002c 02FA01F1 		lsl	r1, r2, r1
 439 0030 20EA0102 		bic	r2, r0, r1
 440 0034 1A62     		str	r2, [r3, #32]
 441 0036 1A6A     		ldr	r2, [r3, #32]
 442 0038 1143     		orrs	r1, r1, r2
 443 003a 1962     		str	r1, [r3, #32]
 444 003c 5A6C     		ldr	r2, [r3, #68]
 445 003e 42F40042 		orr	r2, r2, #32768
 446 0042 5A64     		str	r2, [r3, #68]
 447 0044 1A68     		ldr	r2, [r3]
 448 0046 42F00102 		orr	r2, r2, #1
 449 004a 1A60     		str	r2, [r3]
 450 004c 0020     		movs	r0, #0
 451 004e 7047     		bx	lr
 452              	.L43:
 453 0050 0368     		ldr	r3, [r0]
 454 0052 DA68     		ldr	r2, [r3, #12]
 455 0054 42F00802 		orr	r2, r2, #8
 456 0058 DA60     		str	r2, [r3, #12]
 457 005a E1E7     		b	.L45
 458              	.L42:
 459 005c 0368     		ldr	r3, [r0]
 460 005e DA68     		ldr	r2, [r3, #12]
 461 0060 42F00402 		orr	r2, r2, #4
 462 0064 DA60     		str	r2, [r3, #12]
 463 0066 DBE7     		b	.L45
 464              	.L40:
 465 0068 0368     		ldr	r3, [r0]
 466 006a DA68     		ldr	r2, [r3, #12]
 467 006c 42F00202 		orr	r2, r2, #2
 468 0070 DA60     		str	r2, [r3, #12]
 469 0072 D5E7     		b	.L45
 470              	.L39:
 471 0074 0368     		ldr	r3, [r0]
 472 0076 D3E7     		b	.L45
 474              		.section	.text.HAL_TIMEx_OCN_Start_IT,"ax",%progbits
 475              		.align	2
 476              		.global	HAL_TIMEx_OCN_Start_IT
 477              		.thumb
 478              		.thumb_func
 480              	HAL_TIMEx_OCN_Start_IT:
 481              		@ args = 0, pretend = 0, frame = 0
 482              		@ frame_needed = 0, uses_anonymous_args = 0
 483              		@ link register save eliminated.
ARM GAS  /tmp/ccm30MZX.s 			page 9


 484 0000 FFF7FEBF 		b	HAL_TIMEx_PWMN_Start_IT
 486              		.section	.text.HAL_TIMEx_PWMN_Stop_IT,"ax",%progbits
 487              		.align	2
 488              		.global	HAL_TIMEx_PWMN_Stop_IT
 489              		.thumb
 490              		.thumb_func
 492              	HAL_TIMEx_PWMN_Stop_IT:
 493              		@ args = 0, pretend = 0, frame = 0
 494              		@ frame_needed = 0, uses_anonymous_args = 0
 495              		@ link register save eliminated.
 496 0000 0C29     		cmp	r1, #12
 497 0002 4FD8     		bhi	.L48
 498 0004 DFE801F0 		tbb	[pc, r1]
 499              	.L50:
 500 0008 48       		.byte	(.L49-.L50)/2
 501 0009 4E       		.byte	(.L48-.L50)/2
 502 000a 4E       		.byte	(.L48-.L50)/2
 503 000b 4E       		.byte	(.L48-.L50)/2
 504 000c 42       		.byte	(.L51-.L50)/2
 505 000d 4E       		.byte	(.L48-.L50)/2
 506 000e 4E       		.byte	(.L48-.L50)/2
 507 000f 4E       		.byte	(.L48-.L50)/2
 508 0010 3C       		.byte	(.L52-.L50)/2
 509 0011 4E       		.byte	(.L48-.L50)/2
 510 0012 4E       		.byte	(.L48-.L50)/2
 511 0013 4E       		.byte	(.L48-.L50)/2
 512 0014 07       		.byte	(.L53-.L50)/2
 513 0015 00       		.p2align 1
 514              	.L53:
 515 0016 0368     		ldr	r3, [r0]
 516 0018 DA68     		ldr	r2, [r3, #12]
 517 001a 22F01002 		bic	r2, r2, #16
 518 001e DA60     		str	r2, [r3, #12]
 519              	.L54:
 520 0020 1A6A     		ldr	r2, [r3, #32]
 521 0022 0420     		movs	r0, #4
 522 0024 00FA01F1 		lsl	r1, r0, r1
 523 0028 22EA0101 		bic	r1, r2, r1
 524 002c 1962     		str	r1, [r3, #32]
 525 002e 1A6A     		ldr	r2, [r3, #32]
 526 0030 1A62     		str	r2, [r3, #32]
 527 0032 196A     		ldr	r1, [r3, #32]
 528 0034 40F24442 		movw	r2, #1092
 529 0038 0A40     		ands	r2, r2, r1
 530 003a 1AB9     		cbnz	r2, .L55
 531 003c DA68     		ldr	r2, [r3, #12]
 532 003e 22F08002 		bic	r2, r2, #128
 533 0042 DA60     		str	r2, [r3, #12]
 534              	.L55:
 535 0044 196A     		ldr	r1, [r3, #32]
 536 0046 41F21112 		movw	r2, #4369
 537 004a 0A40     		ands	r2, r2, r1
 538 004c 42B9     		cbnz	r2, .L56
 539 004e 196A     		ldr	r1, [r3, #32]
 540 0050 40F24442 		movw	r2, #1092
 541 0054 0A40     		ands	r2, r2, r1
 542 0056 1AB9     		cbnz	r2, .L56
ARM GAS  /tmp/ccm30MZX.s 			page 10


 543 0058 5A6C     		ldr	r2, [r3, #68]
 544 005a 22F40042 		bic	r2, r2, #32768
 545 005e 5A64     		str	r2, [r3, #68]
 546              	.L56:
 547 0060 196A     		ldr	r1, [r3, #32]
 548 0062 41F21112 		movw	r2, #4369
 549 0066 0A40     		ands	r2, r2, r1
 550 0068 42B9     		cbnz	r2, .L57
 551 006a 196A     		ldr	r1, [r3, #32]
 552 006c 40F24442 		movw	r2, #1092
 553 0070 0A40     		ands	r2, r2, r1
 554 0072 1AB9     		cbnz	r2, .L57
 555 0074 1A68     		ldr	r2, [r3]
 556 0076 22F00102 		bic	r2, r2, #1
 557 007a 1A60     		str	r2, [r3]
 558              	.L57:
 559 007c 0020     		movs	r0, #0
 560 007e 7047     		bx	lr
 561              	.L52:
 562 0080 0368     		ldr	r3, [r0]
 563 0082 DA68     		ldr	r2, [r3, #12]
 564 0084 22F00802 		bic	r2, r2, #8
 565 0088 DA60     		str	r2, [r3, #12]
 566 008a C9E7     		b	.L54
 567              	.L51:
 568 008c 0368     		ldr	r3, [r0]
 569 008e DA68     		ldr	r2, [r3, #12]
 570 0090 22F00402 		bic	r2, r2, #4
 571 0094 DA60     		str	r2, [r3, #12]
 572 0096 C3E7     		b	.L54
 573              	.L49:
 574 0098 0368     		ldr	r3, [r0]
 575 009a DA68     		ldr	r2, [r3, #12]
 576 009c 22F00202 		bic	r2, r2, #2
 577 00a0 DA60     		str	r2, [r3, #12]
 578 00a2 BDE7     		b	.L54
 579              	.L48:
 580 00a4 0368     		ldr	r3, [r0]
 581 00a6 BBE7     		b	.L54
 583              		.section	.text.HAL_TIMEx_OCN_Stop_IT,"ax",%progbits
 584              		.align	2
 585              		.global	HAL_TIMEx_OCN_Stop_IT
 586              		.thumb
 587              		.thumb_func
 589              	HAL_TIMEx_OCN_Stop_IT:
 590              		@ args = 0, pretend = 0, frame = 0
 591              		@ frame_needed = 0, uses_anonymous_args = 0
 592              		@ link register save eliminated.
 593 0000 FFF7FEBF 		b	HAL_TIMEx_PWMN_Stop_IT
 595              		.section	.text.HAL_TIMEx_PWMN_Start_DMA,"ax",%progbits
 596              		.align	2
 597              		.global	HAL_TIMEx_PWMN_Start_DMA
 598              		.thumb
 599              		.thumb_func
 601              	HAL_TIMEx_PWMN_Start_DMA:
 602              		@ args = 0, pretend = 0, frame = 0
 603              		@ frame_needed = 0, uses_anonymous_args = 0
ARM GAS  /tmp/ccm30MZX.s 			page 11


 604 0000 F8B5     		push	{r3, r4, r5, r6, r7, lr}
 605 0002 90F83940 		ldrb	r4, [r0, #57]	@ zero_extendqisi2
 606 0006 E4B2     		uxtb	r4, r4
 607 0008 022C     		cmp	r4, #2
 608 000a 15D0     		beq	.L71
 609 000c 90F83940 		ldrb	r4, [r0, #57]	@ zero_extendqisi2
 610 0010 E4B2     		uxtb	r4, r4
 611 0012 012C     		cmp	r4, #1
 612 0014 0CD0     		beq	.L73
 613              	.L61:
 614 0016 0D46     		mov	r5, r1
 615 0018 0446     		mov	r4, r0
 616 001a 0C2D     		cmp	r5, #12
 617 001c 65D8     		bhi	.L63
 618 001e DFE805F0 		tbb	[pc, r5]
 619              	.L65:
 620 0022 0D       		.byte	(.L64-.L65)/2
 621 0023 64       		.byte	(.L63-.L65)/2
 622 0024 64       		.byte	(.L63-.L65)/2
 623 0025 64       		.byte	(.L63-.L65)/2
 624 0026 53       		.byte	(.L66-.L65)/2
 625 0027 64       		.byte	(.L63-.L65)/2
 626 0028 64       		.byte	(.L63-.L65)/2
 627 0029 64       		.byte	(.L63-.L65)/2
 628 002a 31       		.byte	(.L67-.L65)/2
 629 002b 64       		.byte	(.L63-.L65)/2
 630 002c 64       		.byte	(.L63-.L65)/2
 631 002d 64       		.byte	(.L63-.L65)/2
 632 002e 42       		.byte	(.L68-.L65)/2
 633 002f 00       		.p2align 1
 634              	.L73:
 635 0030 002A     		cmp	r2, #0
 636 0032 5CD1     		bne	.L62
 637 0034 002B     		cmp	r3, #0
 638 0036 5AD0     		beq	.L62
 639              	.L71:
 640 0038 2046     		mov	r0, r4
 641 003a F8BD     		pop	{r3, r4, r5, r6, r7, pc}
 642              	.L64:
 643 003c 2668     		ldr	r6, [r4]
 644 003e 006A     		ldr	r0, [r0, #32]
 645 0040 2D49     		ldr	r1, .L74
 646 0042 2E4F     		ldr	r7, .L74+4
 647 0044 C163     		str	r1, [r0, #60]
 648 0046 C764     		str	r7, [r0, #76]
 649 0048 1146     		mov	r1, r2
 650 004a 06F13402 		add	r2, r6, #52
 651 004e FFF7FEFF 		bl	HAL_DMA_Start_IT
 652 0052 2368     		ldr	r3, [r4]
 653 0054 DA68     		ldr	r2, [r3, #12]
 654 0056 42F40072 		orr	r2, r2, #512
 655 005a DA60     		str	r2, [r3, #12]
 656              	.L69:
 657 005c 186A     		ldr	r0, [r3, #32]
 658 005e 0422     		movs	r2, #4
 659 0060 02FA05F1 		lsl	r1, r2, r5
 660 0064 20EA0102 		bic	r2, r0, r1
ARM GAS  /tmp/ccm30MZX.s 			page 12


 661 0068 1A62     		str	r2, [r3, #32]
 662 006a 1A6A     		ldr	r2, [r3, #32]
 663 006c 1143     		orrs	r1, r1, r2
 664 006e 1962     		str	r1, [r3, #32]
 665 0070 5A6C     		ldr	r2, [r3, #68]
 666 0072 42F40042 		orr	r2, r2, #32768
 667 0076 5A64     		str	r2, [r3, #68]
 668 0078 1A68     		ldr	r2, [r3]
 669 007a 42F00102 		orr	r2, r2, #1
 670 007e 1A60     		str	r2, [r3]
 671 0080 0020     		movs	r0, #0
 672 0082 F8BD     		pop	{r3, r4, r5, r6, r7, pc}
 673              	.L67:
 674 0084 2668     		ldr	r6, [r4]
 675 0086 806A     		ldr	r0, [r0, #40]
 676 0088 1B49     		ldr	r1, .L74
 677 008a 1C4F     		ldr	r7, .L74+4
 678 008c C163     		str	r1, [r0, #60]
 679 008e C764     		str	r7, [r0, #76]
 680 0090 1146     		mov	r1, r2
 681 0092 06F13C02 		add	r2, r6, #60
 682 0096 FFF7FEFF 		bl	HAL_DMA_Start_IT
 683 009a 2368     		ldr	r3, [r4]
 684 009c DA68     		ldr	r2, [r3, #12]
 685 009e 42F40062 		orr	r2, r2, #2048
 686 00a2 DA60     		str	r2, [r3, #12]
 687 00a4 DAE7     		b	.L69
 688              	.L68:
 689 00a6 2668     		ldr	r6, [r4]
 690 00a8 C06A     		ldr	r0, [r0, #44]
 691 00aa 1349     		ldr	r1, .L74
 692 00ac 134F     		ldr	r7, .L74+4
 693 00ae C163     		str	r1, [r0, #60]
 694 00b0 C764     		str	r7, [r0, #76]
 695 00b2 1146     		mov	r1, r2
 696 00b4 06F14002 		add	r2, r6, #64
 697 00b8 FFF7FEFF 		bl	HAL_DMA_Start_IT
 698 00bc 2368     		ldr	r3, [r4]
 699 00be DA68     		ldr	r2, [r3, #12]
 700 00c0 42F48052 		orr	r2, r2, #4096
 701 00c4 DA60     		str	r2, [r3, #12]
 702 00c6 C9E7     		b	.L69
 703              	.L66:
 704 00c8 2668     		ldr	r6, [r4]
 705 00ca 406A     		ldr	r0, [r0, #36]
 706 00cc 0A49     		ldr	r1, .L74
 707 00ce 0B4F     		ldr	r7, .L74+4
 708 00d0 C163     		str	r1, [r0, #60]
 709 00d2 C764     		str	r7, [r0, #76]
 710 00d4 1146     		mov	r1, r2
 711 00d6 06F13802 		add	r2, r6, #56
 712 00da FFF7FEFF 		bl	HAL_DMA_Start_IT
 713 00de 2368     		ldr	r3, [r4]
 714 00e0 DA68     		ldr	r2, [r3, #12]
 715 00e2 42F48062 		orr	r2, r2, #1024
 716 00e6 DA60     		str	r2, [r3, #12]
 717 00e8 B8E7     		b	.L69
ARM GAS  /tmp/ccm30MZX.s 			page 13


 718              	.L63:
 719 00ea 0368     		ldr	r3, [r0]
 720 00ec B6E7     		b	.L69
 721              	.L62:
 722 00ee 0224     		movs	r4, #2
 723 00f0 80F83940 		strb	r4, [r0, #57]
 724 00f4 8FE7     		b	.L61
 725              	.L75:
 726 00f6 00BF     		.align	2
 727              	.L74:
 728 00f8 00000000 		.word	TIM_DMADelayPulseCplt
 729 00fc 00000000 		.word	TIM_DMAError
 731              		.section	.text.HAL_TIMEx_OCN_Start_DMA,"ax",%progbits
 732              		.align	2
 733              		.global	HAL_TIMEx_OCN_Start_DMA
 734              		.thumb
 735              		.thumb_func
 737              	HAL_TIMEx_OCN_Start_DMA:
 738              		@ args = 0, pretend = 0, frame = 0
 739              		@ frame_needed = 0, uses_anonymous_args = 0
 740              		@ link register save eliminated.
 741 0000 FFF7FEBF 		b	HAL_TIMEx_PWMN_Start_DMA
 743              		.section	.text.HAL_TIMEx_PWMN_Stop_DMA,"ax",%progbits
 744              		.align	2
 745              		.global	HAL_TIMEx_PWMN_Stop_DMA
 746              		.thumb
 747              		.thumb_func
 749              	HAL_TIMEx_PWMN_Stop_DMA:
 750              		@ args = 0, pretend = 0, frame = 0
 751              		@ frame_needed = 0, uses_anonymous_args = 0
 752              		@ link register save eliminated.
 753 0000 10B4     		push	{r4}
 754 0002 0C29     		cmp	r1, #12
 755 0004 4BD8     		bhi	.L78
 756 0006 DFE801F0 		tbb	[pc, r1]
 757              	.L80:
 758 000a 44       		.byte	(.L79-.L80)/2
 759 000b 4A       		.byte	(.L78-.L80)/2
 760 000c 4A       		.byte	(.L78-.L80)/2
 761 000d 4A       		.byte	(.L78-.L80)/2
 762 000e 3E       		.byte	(.L81-.L80)/2
 763 000f 4A       		.byte	(.L78-.L80)/2
 764 0010 4A       		.byte	(.L78-.L80)/2
 765 0011 4A       		.byte	(.L78-.L80)/2
 766 0012 38       		.byte	(.L82-.L80)/2
 767 0013 4A       		.byte	(.L78-.L80)/2
 768 0014 4A       		.byte	(.L78-.L80)/2
 769 0015 4A       		.byte	(.L78-.L80)/2
 770 0016 07       		.byte	(.L83-.L80)/2
 771 0017 00       		.p2align 1
 772              	.L83:
 773 0018 0368     		ldr	r3, [r0]
 774 001a DA68     		ldr	r2, [r3, #12]
 775 001c 22F48052 		bic	r2, r2, #4096
 776 0020 DA60     		str	r2, [r3, #12]
 777              	.L84:
 778 0022 1A6A     		ldr	r2, [r3, #32]
ARM GAS  /tmp/ccm30MZX.s 			page 14


 779 0024 0424     		movs	r4, #4
 780 0026 04FA01F1 		lsl	r1, r4, r1
 781 002a 22EA0101 		bic	r1, r2, r1
 782 002e 1962     		str	r1, [r3, #32]
 783 0030 1A6A     		ldr	r2, [r3, #32]
 784 0032 1A62     		str	r2, [r3, #32]
 785 0034 196A     		ldr	r1, [r3, #32]
 786 0036 41F21112 		movw	r2, #4369
 787 003a 0A40     		ands	r2, r2, r1
 788 003c 42B9     		cbnz	r2, .L85
 789 003e 196A     		ldr	r1, [r3, #32]
 790 0040 40F24442 		movw	r2, #1092
 791 0044 0A40     		ands	r2, r2, r1
 792 0046 1AB9     		cbnz	r2, .L85
 793 0048 5A6C     		ldr	r2, [r3, #68]
 794 004a 22F40042 		bic	r2, r2, #32768
 795 004e 5A64     		str	r2, [r3, #68]
 796              	.L85:
 797 0050 196A     		ldr	r1, [r3, #32]
 798 0052 41F21112 		movw	r2, #4369
 799 0056 0A40     		ands	r2, r2, r1
 800 0058 42B9     		cbnz	r2, .L86
 801 005a 196A     		ldr	r1, [r3, #32]
 802 005c 40F24442 		movw	r2, #1092
 803 0060 0A40     		ands	r2, r2, r1
 804 0062 1AB9     		cbnz	r2, .L86
 805 0064 1A68     		ldr	r2, [r3]
 806 0066 22F00102 		bic	r2, r2, #1
 807 006a 1A60     		str	r2, [r3]
 808              	.L86:
 809 006c 0123     		movs	r3, #1
 810 006e 80F83930 		strb	r3, [r0, #57]
 811 0072 5DF8044B 		ldr	r4, [sp], #4
 812 0076 0020     		movs	r0, #0
 813 0078 7047     		bx	lr
 814              	.L82:
 815 007a 0368     		ldr	r3, [r0]
 816 007c DA68     		ldr	r2, [r3, #12]
 817 007e 22F40062 		bic	r2, r2, #2048
 818 0082 DA60     		str	r2, [r3, #12]
 819 0084 CDE7     		b	.L84
 820              	.L81:
 821 0086 0368     		ldr	r3, [r0]
 822 0088 DA68     		ldr	r2, [r3, #12]
 823 008a 22F48062 		bic	r2, r2, #1024
 824 008e DA60     		str	r2, [r3, #12]
 825 0090 C7E7     		b	.L84
 826              	.L79:
 827 0092 0368     		ldr	r3, [r0]
 828 0094 DA68     		ldr	r2, [r3, #12]
 829 0096 22F40072 		bic	r2, r2, #512
 830 009a DA60     		str	r2, [r3, #12]
 831 009c C1E7     		b	.L84
 832              	.L78:
 833 009e 0368     		ldr	r3, [r0]
 834 00a0 BFE7     		b	.L84
 836 00a2 00BF     		.section	.text.HAL_TIMEx_OCN_Stop_DMA,"ax",%progbits
ARM GAS  /tmp/ccm30MZX.s 			page 15


 837              		.align	2
 838              		.global	HAL_TIMEx_OCN_Stop_DMA
 839              		.thumb
 840              		.thumb_func
 842              	HAL_TIMEx_OCN_Stop_DMA:
 843              		@ args = 0, pretend = 0, frame = 0
 844              		@ frame_needed = 0, uses_anonymous_args = 0
 845              		@ link register save eliminated.
 846 0000 FFF7FEBF 		b	HAL_TIMEx_PWMN_Stop_DMA
 848              		.section	.text.HAL_TIMEx_OnePulseN_Start,"ax",%progbits
 849              		.align	2
 850              		.global	HAL_TIMEx_OnePulseN_Start
 851              		.thumb
 852              		.thumb_func
 854              	HAL_TIMEx_OnePulseN_Start:
 855              		@ args = 0, pretend = 0, frame = 0
 856              		@ frame_needed = 0, uses_anonymous_args = 0
 857              		@ link register save eliminated.
 858 0000 0368     		ldr	r3, [r0]
 859 0002 0422     		movs	r2, #4
 860 0004 186A     		ldr	r0, [r3, #32]
 861 0006 02FA01F1 		lsl	r1, r2, r1
 862 000a 20EA0100 		bic	r0, r0, r1
 863 000e 1862     		str	r0, [r3, #32]
 864 0010 1A6A     		ldr	r2, [r3, #32]
 865 0012 1143     		orrs	r1, r1, r2
 866 0014 1962     		str	r1, [r3, #32]
 867 0016 5A6C     		ldr	r2, [r3, #68]
 868 0018 42F40042 		orr	r2, r2, #32768
 869 001c 5A64     		str	r2, [r3, #68]
 870 001e 0020     		movs	r0, #0
 871 0020 7047     		bx	lr
 873 0022 00BF     		.section	.text.HAL_TIMEx_OnePulseN_Stop,"ax",%progbits
 874              		.align	2
 875              		.global	HAL_TIMEx_OnePulseN_Stop
 876              		.thumb
 877              		.thumb_func
 879              	HAL_TIMEx_OnePulseN_Stop:
 880              		@ args = 0, pretend = 0, frame = 0
 881              		@ frame_needed = 0, uses_anonymous_args = 0
 882              		@ link register save eliminated.
 883 0000 0368     		ldr	r3, [r0]
 884 0002 0420     		movs	r0, #4
 885 0004 1A6A     		ldr	r2, [r3, #32]
 886 0006 00FA01F1 		lsl	r1, r0, r1
 887 000a 22EA0102 		bic	r2, r2, r1
 888 000e 1A62     		str	r2, [r3, #32]
 889 0010 1A6A     		ldr	r2, [r3, #32]
 890 0012 1A62     		str	r2, [r3, #32]
 891 0014 196A     		ldr	r1, [r3, #32]
 892 0016 41F21112 		movw	r2, #4369
 893 001a 0A40     		ands	r2, r2, r1
 894 001c 22B9     		cbnz	r2, .L91
 895 001e 196A     		ldr	r1, [r3, #32]
 896 0020 40F24442 		movw	r2, #1092
 897 0024 0A40     		ands	r2, r2, r1
 898 0026 7AB1     		cbz	r2, .L93
ARM GAS  /tmp/ccm30MZX.s 			page 16


 899              	.L91:
 900 0028 196A     		ldr	r1, [r3, #32]
 901 002a 41F21112 		movw	r2, #4369
 902 002e 0A40     		ands	r2, r2, r1
 903 0030 42B9     		cbnz	r2, .L92
 904 0032 196A     		ldr	r1, [r3, #32]
 905 0034 40F24442 		movw	r2, #1092
 906 0038 0A40     		ands	r2, r2, r1
 907 003a 1AB9     		cbnz	r2, .L92
 908 003c 1A68     		ldr	r2, [r3]
 909 003e 22F00102 		bic	r2, r2, #1
 910 0042 1A60     		str	r2, [r3]
 911              	.L92:
 912 0044 0020     		movs	r0, #0
 913 0046 7047     		bx	lr
 914              	.L93:
 915 0048 5A6C     		ldr	r2, [r3, #68]
 916 004a 22F40042 		bic	r2, r2, #32768
 917 004e 5A64     		str	r2, [r3, #68]
 918 0050 EAE7     		b	.L91
 920 0052 00BF     		.section	.text.HAL_TIMEx_PWMN_Stop,"ax",%progbits
 921              		.align	2
 922              		.global	HAL_TIMEx_PWMN_Stop
 923              		.thumb
 924              		.thumb_func
 926              	HAL_TIMEx_PWMN_Stop:
 927              		@ args = 0, pretend = 0, frame = 0
 928              		@ frame_needed = 0, uses_anonymous_args = 0
 929              		@ link register save eliminated.
 930 0000 FFF7FEBF 		b	HAL_TIMEx_OnePulseN_Stop
 932              		.section	.text.HAL_TIMEx_OCN_Stop,"ax",%progbits
 933              		.align	2
 934              		.global	HAL_TIMEx_OCN_Stop
 935              		.thumb
 936              		.thumb_func
 938              	HAL_TIMEx_OCN_Stop:
 939              		@ args = 0, pretend = 0, frame = 0
 940              		@ frame_needed = 0, uses_anonymous_args = 0
 941              		@ link register save eliminated.
 942 0000 FFF7FEBF 		b	HAL_TIMEx_OnePulseN_Stop
 944              		.section	.text.HAL_TIMEx_OnePulseN_Start_IT,"ax",%progbits
 945              		.align	2
 946              		.global	HAL_TIMEx_OnePulseN_Start_IT
 947              		.thumb
 948              		.thumb_func
 950              	HAL_TIMEx_OnePulseN_Start_IT:
 951              		@ args = 0, pretend = 0, frame = 0
 952              		@ frame_needed = 0, uses_anonymous_args = 0
 953              		@ link register save eliminated.
 954 0000 0368     		ldr	r3, [r0]
 955 0002 DA68     		ldr	r2, [r3, #12]
 956 0004 42F00202 		orr	r2, r2, #2
 957 0008 DA60     		str	r2, [r3, #12]
 958 000a DA68     		ldr	r2, [r3, #12]
 959 000c 42F00402 		orr	r2, r2, #4
 960 0010 DA60     		str	r2, [r3, #12]
 961 0012 186A     		ldr	r0, [r3, #32]
ARM GAS  /tmp/ccm30MZX.s 			page 17


 962 0014 0422     		movs	r2, #4
 963 0016 02FA01F1 		lsl	r1, r2, r1
 964 001a 20EA0100 		bic	r0, r0, r1
 965 001e 1862     		str	r0, [r3, #32]
 966 0020 1A6A     		ldr	r2, [r3, #32]
 967 0022 1143     		orrs	r1, r1, r2
 968 0024 1962     		str	r1, [r3, #32]
 969 0026 5A6C     		ldr	r2, [r3, #68]
 970 0028 42F40042 		orr	r2, r2, #32768
 971 002c 5A64     		str	r2, [r3, #68]
 972 002e 0020     		movs	r0, #0
 973 0030 7047     		bx	lr
 975 0032 00BF     		.section	.text.HAL_TIMEx_OnePulseN_Stop_IT,"ax",%progbits
 976              		.align	2
 977              		.global	HAL_TIMEx_OnePulseN_Stop_IT
 978              		.thumb
 979              		.thumb_func
 981              	HAL_TIMEx_OnePulseN_Stop_IT:
 982              		@ args = 0, pretend = 0, frame = 0
 983              		@ frame_needed = 0, uses_anonymous_args = 0
 984              		@ link register save eliminated.
 985 0000 0368     		ldr	r3, [r0]
 986 0002 DA68     		ldr	r2, [r3, #12]
 987 0004 22F00202 		bic	r2, r2, #2
 988 0008 DA60     		str	r2, [r3, #12]
 989 000a DA68     		ldr	r2, [r3, #12]
 990 000c 22F00402 		bic	r2, r2, #4
 991 0010 DA60     		str	r2, [r3, #12]
 992 0012 1A6A     		ldr	r2, [r3, #32]
 993 0014 0420     		movs	r0, #4
 994 0016 00FA01F1 		lsl	r1, r0, r1
 995 001a 22EA0102 		bic	r2, r2, r1
 996 001e 1A62     		str	r2, [r3, #32]
 997 0020 1A6A     		ldr	r2, [r3, #32]
 998 0022 1A62     		str	r2, [r3, #32]
 999 0024 196A     		ldr	r1, [r3, #32]
 1000 0026 41F21112 		movw	r2, #4369
 1001 002a 0A40     		ands	r2, r2, r1
 1002 002c 22B9     		cbnz	r2, .L98
 1003 002e 196A     		ldr	r1, [r3, #32]
 1004 0030 40F24442 		movw	r2, #1092
 1005 0034 0A40     		ands	r2, r2, r1
 1006 0036 7AB1     		cbz	r2, .L100
 1007              	.L98:
 1008 0038 196A     		ldr	r1, [r3, #32]
 1009 003a 41F21112 		movw	r2, #4369
 1010 003e 0A40     		ands	r2, r2, r1
 1011 0040 42B9     		cbnz	r2, .L99
 1012 0042 196A     		ldr	r1, [r3, #32]
 1013 0044 40F24442 		movw	r2, #1092
 1014 0048 0A40     		ands	r2, r2, r1
 1015 004a 1AB9     		cbnz	r2, .L99
 1016 004c 1A68     		ldr	r2, [r3]
 1017 004e 22F00102 		bic	r2, r2, #1
 1018 0052 1A60     		str	r2, [r3]
 1019              	.L99:
 1020 0054 0020     		movs	r0, #0
ARM GAS  /tmp/ccm30MZX.s 			page 18


 1021 0056 7047     		bx	lr
 1022              	.L100:
 1023 0058 5A6C     		ldr	r2, [r3, #68]
 1024 005a 22F40042 		bic	r2, r2, #32768
 1025 005e 5A64     		str	r2, [r3, #68]
 1026 0060 EAE7     		b	.L98
 1028 0062 00BF     		.section	.text.HAL_TIMEx_ConfigCommutationEvent,"ax",%progbits
 1029              		.align	2
 1030              		.global	HAL_TIMEx_ConfigCommutationEvent
 1031              		.thumb
 1032              		.thumb_func
 1034              	HAL_TIMEx_ConfigCommutationEvent:
 1035              		@ args = 0, pretend = 0, frame = 0
 1036              		@ frame_needed = 0, uses_anonymous_args = 0
 1037              		@ link register save eliminated.
 1038 0000 90F83830 		ldrb	r3, [r0, #56]	@ zero_extendqisi2
 1039 0004 012B     		cmp	r3, #1
 1040 0006 20D0     		beq	.L105
 1041 0008 0123     		movs	r3, #1
 1042 000a 10B4     		push	{r4}
 1043 000c 80F83830 		strb	r3, [r0, #56]
 1044 0010 31F03003 		bics	r3, r1, #48
 1045 0014 0368     		ldr	r3, [r0]
 1046 0016 06D1     		bne	.L104
 1047 0018 9C68     		ldr	r4, [r3, #8]
 1048 001a 24F07004 		bic	r4, r4, #112
 1049 001e 9C60     		str	r4, [r3, #8]
 1050 0020 9C68     		ldr	r4, [r3, #8]
 1051 0022 2143     		orrs	r1, r1, r4
 1052 0024 9960     		str	r1, [r3, #8]
 1053              	.L104:
 1054 0026 5968     		ldr	r1, [r3, #4]
 1055 0028 41F00101 		orr	r1, r1, #1
 1056 002c 5960     		str	r1, [r3, #4]
 1057 002e 5968     		ldr	r1, [r3, #4]
 1058 0030 21F00401 		bic	r1, r1, #4
 1059 0034 5960     		str	r1, [r3, #4]
 1060 0036 5C68     		ldr	r4, [r3, #4]
 1061 0038 0021     		movs	r1, #0
 1062 003a 2243     		orrs	r2, r2, r4
 1063 003c 5A60     		str	r2, [r3, #4]
 1064 003e 5DF8044B 		ldr	r4, [sp], #4
 1065 0042 80F83810 		strb	r1, [r0, #56]
 1066 0046 0846     		mov	r0, r1
 1067 0048 7047     		bx	lr
 1068              	.L105:
 1069 004a 0223     		movs	r3, #2
 1070 004c 1846     		mov	r0, r3
 1071 004e 7047     		bx	lr
 1073              		.section	.text.HAL_TIMEx_ConfigCommutationEvent_IT,"ax",%progbits
 1074              		.align	2
 1075              		.global	HAL_TIMEx_ConfigCommutationEvent_IT
 1076              		.thumb
 1077              		.thumb_func
 1079              	HAL_TIMEx_ConfigCommutationEvent_IT:
 1080              		@ args = 0, pretend = 0, frame = 0
 1081              		@ frame_needed = 0, uses_anonymous_args = 0
ARM GAS  /tmp/ccm30MZX.s 			page 19


 1082              		@ link register save eliminated.
 1083 0000 90F83830 		ldrb	r3, [r0, #56]	@ zero_extendqisi2
 1084 0004 012B     		cmp	r3, #1
 1085 0006 24D0     		beq	.L112
 1086 0008 0123     		movs	r3, #1
 1087 000a 10B4     		push	{r4}
 1088 000c 80F83830 		strb	r3, [r0, #56]
 1089 0010 31F03003 		bics	r3, r1, #48
 1090 0014 0368     		ldr	r3, [r0]
 1091 0016 06D1     		bne	.L111
 1092 0018 9C68     		ldr	r4, [r3, #8]
 1093 001a 24F07004 		bic	r4, r4, #112
 1094 001e 9C60     		str	r4, [r3, #8]
 1095 0020 9C68     		ldr	r4, [r3, #8]
 1096 0022 2143     		orrs	r1, r1, r4
 1097 0024 9960     		str	r1, [r3, #8]
 1098              	.L111:
 1099 0026 5968     		ldr	r1, [r3, #4]
 1100 0028 5DF8044B 		ldr	r4, [sp], #4
 1101 002c 41F00101 		orr	r1, r1, #1
 1102 0030 5960     		str	r1, [r3, #4]
 1103 0032 5968     		ldr	r1, [r3, #4]
 1104 0034 21F00401 		bic	r1, r1, #4
 1105 0038 5960     		str	r1, [r3, #4]
 1106 003a 5968     		ldr	r1, [r3, #4]
 1107 003c 0A43     		orrs	r2, r2, r1
 1108 003e 5A60     		str	r2, [r3, #4]
 1109 0040 DA68     		ldr	r2, [r3, #12]
 1110 0042 0021     		movs	r1, #0
 1111 0044 42F02002 		orr	r2, r2, #32
 1112 0048 DA60     		str	r2, [r3, #12]
 1113 004a 80F83810 		strb	r1, [r0, #56]
 1114 004e 0846     		mov	r0, r1
 1115 0050 7047     		bx	lr
 1116              	.L112:
 1117 0052 0223     		movs	r3, #2
 1118 0054 1846     		mov	r0, r3
 1119 0056 7047     		bx	lr
 1121              		.section	.text.HAL_TIMEx_ConfigCommutationEvent_DMA,"ax",%progbits
 1122              		.align	2
 1123              		.global	HAL_TIMEx_ConfigCommutationEvent_DMA
 1124              		.thumb
 1125              		.thumb_func
 1127              	HAL_TIMEx_ConfigCommutationEvent_DMA:
 1128              		@ args = 0, pretend = 0, frame = 0
 1129              		@ frame_needed = 0, uses_anonymous_args = 0
 1130              		@ link register save eliminated.
 1131 0000 90F83830 		ldrb	r3, [r0, #56]	@ zero_extendqisi2
 1132 0004 012B     		cmp	r3, #1
 1133 0006 28D0     		beq	.L119
 1134 0008 0123     		movs	r3, #1
 1135 000a 70B4     		push	{r4, r5, r6}
 1136 000c 80F83830 		strb	r3, [r0, #56]
 1137 0010 31F03003 		bics	r3, r1, #48
 1138 0014 0368     		ldr	r3, [r0]
 1139 0016 06D1     		bne	.L118
 1140 0018 9C68     		ldr	r4, [r3, #8]
ARM GAS  /tmp/ccm30MZX.s 			page 20


 1141 001a 24F07004 		bic	r4, r4, #112
 1142 001e 9C60     		str	r4, [r3, #8]
 1143 0020 9C68     		ldr	r4, [r3, #8]
 1144 0022 2143     		orrs	r1, r1, r4
 1145 0024 9960     		str	r1, [r3, #8]
 1146              	.L118:
 1147 0026 5968     		ldr	r1, [r3, #4]
 1148 0028 056B     		ldr	r5, [r0, #48]
 1149 002a 0D4C     		ldr	r4, .L122
 1150 002c 0D4E     		ldr	r6, .L122+4
 1151 002e 41F00101 		orr	r1, r1, #1
 1152 0032 5960     		str	r1, [r3, #4]
 1153 0034 5968     		ldr	r1, [r3, #4]
 1154 0036 21F00401 		bic	r1, r1, #4
 1155 003a 5960     		str	r1, [r3, #4]
 1156 003c 5968     		ldr	r1, [r3, #4]
 1157 003e 0A43     		orrs	r2, r2, r1
 1158 0040 5A60     		str	r2, [r3, #4]
 1159 0042 DA68     		ldr	r2, [r3, #12]
 1160 0044 EC63     		str	r4, [r5, #60]
 1161 0046 42F40052 		orr	r2, r2, #8192
 1162 004a 0024     		movs	r4, #0
 1163 004c EE64     		str	r6, [r5, #76]
 1164 004e DA60     		str	r2, [r3, #12]
 1165 0050 80F83840 		strb	r4, [r0, #56]
 1166 0054 2046     		mov	r0, r4
 1167 0056 70BC     		pop	{r4, r5, r6}
 1168 0058 7047     		bx	lr
 1169              	.L119:
 1170 005a 0221     		movs	r1, #2
 1171 005c 0846     		mov	r0, r1
 1172 005e 7047     		bx	lr
 1173              	.L123:
 1174              		.align	2
 1175              	.L122:
 1176 0060 00000000 		.word	TIMEx_DMACommutationCplt
 1177 0064 00000000 		.word	TIM_DMAError
 1179              		.section	.text.HAL_TIMEx_MasterConfigSynchronization,"ax",%progbits
 1180              		.align	2
 1181              		.global	HAL_TIMEx_MasterConfigSynchronization
 1182              		.thumb
 1183              		.thumb_func
 1185              	HAL_TIMEx_MasterConfigSynchronization:
 1186              		@ args = 0, pretend = 0, frame = 0
 1187              		@ frame_needed = 0, uses_anonymous_args = 0
 1188              		@ link register save eliminated.
 1189 0000 90F83830 		ldrb	r3, [r0, #56]	@ zero_extendqisi2
 1190 0004 012B     		cmp	r3, #1
 1191 0006 1DD0     		beq	.L126
 1192 0008 0246     		mov	r2, r0
 1193 000a 0220     		movs	r0, #2
 1194 000c 1368     		ldr	r3, [r2]
 1195 000e 30B4     		push	{r4, r5}
 1196 0010 82F83900 		strb	r0, [r2, #57]
 1197 0014 5C68     		ldr	r4, [r3, #4]
 1198 0016 24F07004 		bic	r4, r4, #112
 1199 001a 03C9     		ldmia	r1, {r0, r1}
ARM GAS  /tmp/ccm30MZX.s 			page 21


 1200 001c 5C60     		str	r4, [r3, #4]
 1201 001e 5C68     		ldr	r4, [r3, #4]
 1202 0020 2043     		orrs	r0, r0, r4
 1203 0022 5860     		str	r0, [r3, #4]
 1204 0024 9868     		ldr	r0, [r3, #8]
 1205 0026 20F08000 		bic	r0, r0, #128
 1206 002a 9860     		str	r0, [r3, #8]
 1207 002c 9868     		ldr	r0, [r3, #8]
 1208 002e 0024     		movs	r4, #0
 1209 0030 0125     		movs	r5, #1
 1210 0032 0143     		orrs	r1, r1, r0
 1211 0034 9960     		str	r1, [r3, #8]
 1212 0036 2046     		mov	r0, r4
 1213 0038 82F83950 		strb	r5, [r2, #57]
 1214 003c 82F83840 		strb	r4, [r2, #56]
 1215 0040 30BC     		pop	{r4, r5}
 1216 0042 7047     		bx	lr
 1217              	.L126:
 1218 0044 0220     		movs	r0, #2
 1219 0046 7047     		bx	lr
 1221              		.section	.text.HAL_TIMEx_ConfigBreakDeadTime,"ax",%progbits
 1222              		.align	2
 1223              		.global	HAL_TIMEx_ConfigBreakDeadTime
 1224              		.thumb
 1225              		.thumb_func
 1227              	HAL_TIMEx_ConfigBreakDeadTime:
 1228              		@ args = 0, pretend = 0, frame = 0
 1229              		@ frame_needed = 0, uses_anonymous_args = 0
 1230              		@ link register save eliminated.
 1231 0000 90F83820 		ldrb	r2, [r0, #56]	@ zero_extendqisi2
 1232 0004 012A     		cmp	r2, #1
 1233 0006 1CD0     		beq	.L131
 1234 0008 F0B4     		push	{r4, r5, r6, r7}
 1235 000a 4A68     		ldr	r2, [r1, #4]
 1236 000c 0F68     		ldr	r7, [r1]
 1237 000e 8E68     		ldr	r6, [r1, #8]
 1238 0010 CD68     		ldr	r5, [r1, #12]
 1239 0012 0C69     		ldr	r4, [r1, #16]
 1240 0014 3A43     		orrs	r2, r2, r7
 1241 0016 3243     		orrs	r2, r2, r6
 1242 0018 0346     		mov	r3, r0
 1243 001a 2A43     		orrs	r2, r2, r5
 1244 001c 4869     		ldr	r0, [r1, #20]
 1245 001e 8969     		ldr	r1, [r1, #24]
 1246 0020 1D68     		ldr	r5, [r3]
 1247 0022 2243     		orrs	r2, r2, r4
 1248 0024 0243     		orrs	r2, r2, r0
 1249 0026 0A43     		orrs	r2, r2, r1
 1250 0028 0220     		movs	r0, #2
 1251 002a 0124     		movs	r4, #1
 1252 002c 0021     		movs	r1, #0
 1253 002e 83F83900 		strb	r0, [r3, #57]
 1254 0032 6A64     		str	r2, [r5, #68]
 1255 0034 0846     		mov	r0, r1
 1256 0036 83F83940 		strb	r4, [r3, #57]
 1257 003a 83F83810 		strb	r1, [r3, #56]
 1258 003e F0BC     		pop	{r4, r5, r6, r7}
ARM GAS  /tmp/ccm30MZX.s 			page 22


 1259 0040 7047     		bx	lr
 1260              	.L131:
 1261 0042 0220     		movs	r0, #2
 1262 0044 7047     		bx	lr
 1264 0046 00BF     		.section	.text.HAL_TIMEx_RemapConfig,"ax",%progbits
 1265              		.align	2
 1266              		.global	HAL_TIMEx_RemapConfig
 1267              		.thumb
 1268              		.thumb_func
 1270              	HAL_TIMEx_RemapConfig:
 1271              		@ args = 0, pretend = 0, frame = 0
 1272              		@ frame_needed = 0, uses_anonymous_args = 0
 1273              		@ link register save eliminated.
 1274 0000 90F83820 		ldrb	r2, [r0, #56]	@ zero_extendqisi2
 1275 0004 012A     		cmp	r2, #1
 1276 0006 0DD0     		beq	.L136
 1277 0008 0346     		mov	r3, r0
 1278 000a 0068     		ldr	r0, [r0]
 1279 000c 10B4     		push	{r4}
 1280 000e 0022     		movs	r2, #0
 1281 0010 0124     		movs	r4, #1
 1282 0012 0165     		str	r1, [r0, #80]
 1283 0014 1046     		mov	r0, r2
 1284 0016 83F83940 		strb	r4, [r3, #57]
 1285 001a 83F83820 		strb	r2, [r3, #56]
 1286 001e 5DF8044B 		ldr	r4, [sp], #4
 1287 0022 7047     		bx	lr
 1288              	.L136:
 1289 0024 0220     		movs	r0, #2
 1290 0026 7047     		bx	lr
 1292              		.section	.text.HAL_TIMEx_CommutationCallback,"ax",%progbits
 1293              		.align	2
 1294              		.weak	HAL_TIMEx_CommutationCallback
 1295              		.thumb
 1296              		.thumb_func
 1298              	HAL_TIMEx_CommutationCallback:
 1299              		@ args = 0, pretend = 0, frame = 0
 1300              		@ frame_needed = 0, uses_anonymous_args = 0
 1301              		@ link register save eliminated.
 1302 0000 7047     		bx	lr
 1304 0002 00BF     		.section	.text.TIMEx_DMACommutationCplt,"ax",%progbits
 1305              		.align	2
 1306              		.global	TIMEx_DMACommutationCplt
 1307              		.thumb
 1308              		.thumb_func
 1310              	TIMEx_DMACommutationCplt:
 1311              		@ args = 0, pretend = 0, frame = 0
 1312              		@ frame_needed = 0, uses_anonymous_args = 0
 1313 0000 08B5     		push	{r3, lr}
 1314 0002 806B     		ldr	r0, [r0, #56]
 1315 0004 0123     		movs	r3, #1
 1316 0006 80F83930 		strb	r3, [r0, #57]
 1317 000a FFF7FEFF 		bl	HAL_TIMEx_CommutationCallback
 1318 000e 08BD     		pop	{r3, pc}
 1320              		.section	.text.HAL_TIMEx_BreakCallback,"ax",%progbits
 1321              		.align	2
 1322              		.weak	HAL_TIMEx_BreakCallback
ARM GAS  /tmp/ccm30MZX.s 			page 23


 1323              		.thumb
 1324              		.thumb_func
 1326              	HAL_TIMEx_BreakCallback:
 1327              		@ args = 0, pretend = 0, frame = 0
 1328              		@ frame_needed = 0, uses_anonymous_args = 0
 1329              		@ link register save eliminated.
 1330 0000 7047     		bx	lr
 1332 0002 00BF     		.section	.text.HAL_TIMEx_HallSensor_GetState,"ax",%progbits
 1333              		.align	2
 1334              		.global	HAL_TIMEx_HallSensor_GetState
 1335              		.thumb
 1336              		.thumb_func
 1338              	HAL_TIMEx_HallSensor_GetState:
 1339              		@ args = 0, pretend = 0, frame = 0
 1340              		@ frame_needed = 0, uses_anonymous_args = 0
 1341              		@ link register save eliminated.
 1342 0000 90F83900 		ldrb	r0, [r0, #57]	@ zero_extendqisi2
 1343 0004 7047     		bx	lr
 1345 0006 00BF     		.ident	"GCC: (GNU Tools for ARM Embedded Processors) 5.4.1 20160919 (release) [ARM/embedded-5-bran
ARM GAS  /tmp/ccm30MZX.s 			page 24


DEFINED SYMBOLS
                            *ABS*:00000000 stm32f4xx_hal_tim_ex.c
     /tmp/ccm30MZX.s:18     .text.HAL_TIMEx_HallSensor_MspInit:00000000 $t
     /tmp/ccm30MZX.s:23     .text.HAL_TIMEx_HallSensor_MspInit:00000000 HAL_TIMEx_HallSensor_MspInit
     /tmp/ccm30MZX.s:30     .text.HAL_TIMEx_HallSensor_Init:00000000 $t
     /tmp/ccm30MZX.s:35     .text.HAL_TIMEx_HallSensor_Init:00000000 HAL_TIMEx_HallSensor_Init
     /tmp/ccm30MZX.s:108    .text.HAL_TIMEx_HallSensor_MspDeInit:00000000 $t
     /tmp/ccm30MZX.s:113    .text.HAL_TIMEx_HallSensor_MspDeInit:00000000 HAL_TIMEx_HallSensor_MspDeInit
     /tmp/ccm30MZX.s:120    .text.HAL_TIMEx_HallSensor_DeInit:00000000 $t
     /tmp/ccm30MZX.s:125    .text.HAL_TIMEx_HallSensor_DeInit:00000000 HAL_TIMEx_HallSensor_DeInit
     /tmp/ccm30MZX.s:153    .text.HAL_TIMEx_HallSensor_Start:00000000 $t
     /tmp/ccm30MZX.s:158    .text.HAL_TIMEx_HallSensor_Start:00000000 HAL_TIMEx_HallSensor_Start
     /tmp/ccm30MZX.s:175    .text.HAL_TIMEx_HallSensor_Stop:00000000 $t
     /tmp/ccm30MZX.s:180    .text.HAL_TIMEx_HallSensor_Stop:00000000 HAL_TIMEx_HallSensor_Stop
     /tmp/ccm30MZX.s:206    .text.HAL_TIMEx_HallSensor_Start_IT:00000000 $t
     /tmp/ccm30MZX.s:211    .text.HAL_TIMEx_HallSensor_Start_IT:00000000 HAL_TIMEx_HallSensor_Start_IT
     /tmp/ccm30MZX.s:231    .text.HAL_TIMEx_HallSensor_Stop_IT:00000000 $t
     /tmp/ccm30MZX.s:236    .text.HAL_TIMEx_HallSensor_Stop_IT:00000000 HAL_TIMEx_HallSensor_Stop_IT
     /tmp/ccm30MZX.s:265    .text.HAL_TIMEx_HallSensor_Start_DMA:00000000 $t
     /tmp/ccm30MZX.s:270    .text.HAL_TIMEx_HallSensor_Start_DMA:00000000 HAL_TIMEx_HallSensor_Start_DMA
     /tmp/ccm30MZX.s:322    .text.HAL_TIMEx_HallSensor_Start_DMA:00000064 $d
     /tmp/ccm30MZX.s:326    .text.HAL_TIMEx_HallSensor_Stop_DMA:00000000 $t
     /tmp/ccm30MZX.s:331    .text.HAL_TIMEx_HallSensor_Stop_DMA:00000000 HAL_TIMEx_HallSensor_Stop_DMA
     /tmp/ccm30MZX.s:360    .text.HAL_TIMEx_PWMN_Start:00000000 $t
     /tmp/ccm30MZX.s:365    .text.HAL_TIMEx_PWMN_Start:00000000 HAL_TIMEx_PWMN_Start
     /tmp/ccm30MZX.s:388    .text.HAL_TIMEx_OCN_Start:00000000 $t
     /tmp/ccm30MZX.s:393    .text.HAL_TIMEx_OCN_Start:00000000 HAL_TIMEx_OCN_Start
     /tmp/ccm30MZX.s:400    .text.HAL_TIMEx_PWMN_Start_IT:00000000 $t
     /tmp/ccm30MZX.s:405    .text.HAL_TIMEx_PWMN_Start_IT:00000000 HAL_TIMEx_PWMN_Start_IT
     /tmp/ccm30MZX.s:413    .text.HAL_TIMEx_PWMN_Start_IT:00000008 $d
     /tmp/ccm30MZX.s:475    .text.HAL_TIMEx_OCN_Start_IT:00000000 $t
     /tmp/ccm30MZX.s:480    .text.HAL_TIMEx_OCN_Start_IT:00000000 HAL_TIMEx_OCN_Start_IT
     /tmp/ccm30MZX.s:487    .text.HAL_TIMEx_PWMN_Stop_IT:00000000 $t
     /tmp/ccm30MZX.s:492    .text.HAL_TIMEx_PWMN_Stop_IT:00000000 HAL_TIMEx_PWMN_Stop_IT
     /tmp/ccm30MZX.s:500    .text.HAL_TIMEx_PWMN_Stop_IT:00000008 $d
     /tmp/ccm30MZX.s:584    .text.HAL_TIMEx_OCN_Stop_IT:00000000 $t
     /tmp/ccm30MZX.s:589    .text.HAL_TIMEx_OCN_Stop_IT:00000000 HAL_TIMEx_OCN_Stop_IT
     /tmp/ccm30MZX.s:596    .text.HAL_TIMEx_PWMN_Start_DMA:00000000 $t
     /tmp/ccm30MZX.s:601    .text.HAL_TIMEx_PWMN_Start_DMA:00000000 HAL_TIMEx_PWMN_Start_DMA
     /tmp/ccm30MZX.s:620    .text.HAL_TIMEx_PWMN_Start_DMA:00000022 $d
     /tmp/ccm30MZX.s:728    .text.HAL_TIMEx_PWMN_Start_DMA:000000f8 $d
     /tmp/ccm30MZX.s:732    .text.HAL_TIMEx_OCN_Start_DMA:00000000 $t
     /tmp/ccm30MZX.s:737    .text.HAL_TIMEx_OCN_Start_DMA:00000000 HAL_TIMEx_OCN_Start_DMA
     /tmp/ccm30MZX.s:744    .text.HAL_TIMEx_PWMN_Stop_DMA:00000000 $t
     /tmp/ccm30MZX.s:749    .text.HAL_TIMEx_PWMN_Stop_DMA:00000000 HAL_TIMEx_PWMN_Stop_DMA
     /tmp/ccm30MZX.s:758    .text.HAL_TIMEx_PWMN_Stop_DMA:0000000a $d
     /tmp/ccm30MZX.s:837    .text.HAL_TIMEx_OCN_Stop_DMA:00000000 $t
     /tmp/ccm30MZX.s:842    .text.HAL_TIMEx_OCN_Stop_DMA:00000000 HAL_TIMEx_OCN_Stop_DMA
     /tmp/ccm30MZX.s:849    .text.HAL_TIMEx_OnePulseN_Start:00000000 $t
     /tmp/ccm30MZX.s:854    .text.HAL_TIMEx_OnePulseN_Start:00000000 HAL_TIMEx_OnePulseN_Start
     /tmp/ccm30MZX.s:874    .text.HAL_TIMEx_OnePulseN_Stop:00000000 $t
     /tmp/ccm30MZX.s:879    .text.HAL_TIMEx_OnePulseN_Stop:00000000 HAL_TIMEx_OnePulseN_Stop
     /tmp/ccm30MZX.s:921    .text.HAL_TIMEx_PWMN_Stop:00000000 $t
     /tmp/ccm30MZX.s:926    .text.HAL_TIMEx_PWMN_Stop:00000000 HAL_TIMEx_PWMN_Stop
     /tmp/ccm30MZX.s:933    .text.HAL_TIMEx_OCN_Stop:00000000 $t
     /tmp/ccm30MZX.s:938    .text.HAL_TIMEx_OCN_Stop:00000000 HAL_TIMEx_OCN_Stop
     /tmp/ccm30MZX.s:945    .text.HAL_TIMEx_OnePulseN_Start_IT:00000000 $t
ARM GAS  /tmp/ccm30MZX.s 			page 25


     /tmp/ccm30MZX.s:950    .text.HAL_TIMEx_OnePulseN_Start_IT:00000000 HAL_TIMEx_OnePulseN_Start_IT
     /tmp/ccm30MZX.s:976    .text.HAL_TIMEx_OnePulseN_Stop_IT:00000000 $t
     /tmp/ccm30MZX.s:981    .text.HAL_TIMEx_OnePulseN_Stop_IT:00000000 HAL_TIMEx_OnePulseN_Stop_IT
     /tmp/ccm30MZX.s:1029   .text.HAL_TIMEx_ConfigCommutationEvent:00000000 $t
     /tmp/ccm30MZX.s:1034   .text.HAL_TIMEx_ConfigCommutationEvent:00000000 HAL_TIMEx_ConfigCommutationEvent
     /tmp/ccm30MZX.s:1074   .text.HAL_TIMEx_ConfigCommutationEvent_IT:00000000 $t
     /tmp/ccm30MZX.s:1079   .text.HAL_TIMEx_ConfigCommutationEvent_IT:00000000 HAL_TIMEx_ConfigCommutationEvent_IT
     /tmp/ccm30MZX.s:1122   .text.HAL_TIMEx_ConfigCommutationEvent_DMA:00000000 $t
     /tmp/ccm30MZX.s:1127   .text.HAL_TIMEx_ConfigCommutationEvent_DMA:00000000 HAL_TIMEx_ConfigCommutationEvent_DMA
     /tmp/ccm30MZX.s:1176   .text.HAL_TIMEx_ConfigCommutationEvent_DMA:00000060 $d
     /tmp/ccm30MZX.s:1310   .text.TIMEx_DMACommutationCplt:00000000 TIMEx_DMACommutationCplt
     /tmp/ccm30MZX.s:1180   .text.HAL_TIMEx_MasterConfigSynchronization:00000000 $t
     /tmp/ccm30MZX.s:1185   .text.HAL_TIMEx_MasterConfigSynchronization:00000000 HAL_TIMEx_MasterConfigSynchronization
     /tmp/ccm30MZX.s:1222   .text.HAL_TIMEx_ConfigBreakDeadTime:00000000 $t
     /tmp/ccm30MZX.s:1227   .text.HAL_TIMEx_ConfigBreakDeadTime:00000000 HAL_TIMEx_ConfigBreakDeadTime
     /tmp/ccm30MZX.s:1265   .text.HAL_TIMEx_RemapConfig:00000000 $t
     /tmp/ccm30MZX.s:1270   .text.HAL_TIMEx_RemapConfig:00000000 HAL_TIMEx_RemapConfig
     /tmp/ccm30MZX.s:1293   .text.HAL_TIMEx_CommutationCallback:00000000 $t
     /tmp/ccm30MZX.s:1298   .text.HAL_TIMEx_CommutationCallback:00000000 HAL_TIMEx_CommutationCallback
     /tmp/ccm30MZX.s:1305   .text.TIMEx_DMACommutationCplt:00000000 $t
     /tmp/ccm30MZX.s:1321   .text.HAL_TIMEx_BreakCallback:00000000 $t
     /tmp/ccm30MZX.s:1326   .text.HAL_TIMEx_BreakCallback:00000000 HAL_TIMEx_BreakCallback
     /tmp/ccm30MZX.s:1333   .text.HAL_TIMEx_HallSensor_GetState:00000000 $t
     /tmp/ccm30MZX.s:1338   .text.HAL_TIMEx_HallSensor_GetState:00000000 HAL_TIMEx_HallSensor_GetState
     /tmp/ccm30MZX.s:426    .text.HAL_TIMEx_PWMN_Start_IT:00000015 $d
     /tmp/ccm30MZX.s:426    .text.HAL_TIMEx_PWMN_Start_IT:00000016 $t
     /tmp/ccm30MZX.s:513    .text.HAL_TIMEx_PWMN_Stop_IT:00000015 $d
     /tmp/ccm30MZX.s:513    .text.HAL_TIMEx_PWMN_Stop_IT:00000016 $t
     /tmp/ccm30MZX.s:633    .text.HAL_TIMEx_PWMN_Start_DMA:0000002f $d
     /tmp/ccm30MZX.s:633    .text.HAL_TIMEx_PWMN_Start_DMA:00000030 $t
     /tmp/ccm30MZX.s:771    .text.HAL_TIMEx_PWMN_Stop_DMA:00000017 $d
     /tmp/ccm30MZX.s:771    .text.HAL_TIMEx_PWMN_Stop_DMA:00000018 $t

UNDEFINED SYMBOLS
TIM_Base_SetConfig
TIM_TI1_SetConfig
TIM_OC2_SetConfig
TIM_CCxChannelCmd
HAL_DMA_Start_IT
TIM_DMAError
TIM_DMACaptureCplt
TIM_DMADelayPulseCplt
